
rtx_loader.bin:     file format elf32-m68k
rtx_loader.bin
architecture: m68k:isa-a:mac, flags 0x00000112:
EXEC_P, HAS_SYMS, D_PAGED
start address 0x10200000

Program Header:
    LOAD off    0x00002000 vaddr 0x10200000 paddr 0x10200000 align 2**13
         filesz 0x00002a58 memsz 0x00003e74 flags rwx
    LOAD off    0x00006000 vaddr 0x10500000 paddr 0x10500000 align 2**13
         filesz 0x0000005c memsz 0x0000005c flags rw-
private flags = 12: [isa A] [mac]

Sections:
Idx Name          Size      VMA       LMA       File off  Algn
  0 .text         00002a35  10200000  10200000  00002000  2**2
                  CONTENTS, ALLOC, LOAD, READONLY, CODE
  1 .data         00000020  10202a38  10202a38  00004a38  2**2
                  CONTENTS, ALLOC, LOAD, DATA
  2 .bss          0000141c  10202a58  10202a58  00004a58  2**4
                  ALLOC
  3 __RTX_TEST_DATA__ 0000005c  10500000  10500000  00006000  2**1
                  CONTENTS, ALLOC, LOAD, DATA
  4 .comment      000001d4  00000000  00000000  0000605c  2**0
                  CONTENTS, READONLY
SYMBOL TABLE:
10200000 l    d  .text	00000000 .text
10202a38 l    d  .data	00000000 .data
10202a58 l    d  .bss	00000000 .bss
10500000 l    d  __RTX_TEST_DATA__	00000000 __RTX_TEST_DATA__
00000000 l    d  .comment	00000000 .comment
00000000 l    df *ABS*	00000000 rtx.c
00000000 l    df *ABS*	00000000 dbug.c
00000000 l    df *ABS*	00000000 rtx_loader.c
00000000 l    df *ABS*	00000000 memory.c
00000000 l    df *ABS*	00000000 messaging.c
00000000 l    df *ABS*	00000000 priority.c
00000000 l    df *ABS*	00000000 process_management.c
00000000 l    df *ABS*	00000000 uart.c
00000000 l    df *ABS*	00000000 kcd.c
00000000 l    df *ABS*	00000000 crt.c
00000000 l    df *ABS*	00000000 timer.c
00000000 l    df *ABS*	00000000 init.c
10203a80 g     O .bss	00000004 old_fp
10203a84 g     O .bss	00000010 bmem_queue
10202a44 g     O .data	00000004 crlf
10200d18 g     F .text	0000001c read_message
10200108 g       .text	00000000 display_task_manager
102010b0 g     F .text	000000ce remove_process
10500020 g     O __RTX_TEST_DATA__	0000003c g_test_proc
102001a8 g     F .text	00000018 coldfire_vbr_init
10400000 g       *ABS*	00000000 __RTX_TEST_CODE_ENTRY__
10200ca2 g     F .text	00000022 set_message_type
10201d54 g     F .text	00000036 c_timer_handler
10203a94 g     O .bss	00000004 prio
10200020 g       .text	00000000 process_switch
10203a98 g     O .bss	00000010 bmsg_queue
1020047e g     F .text	000000b8 task_manager
10203aa8 g     O .bss	00000004 init_key_head
10202a35 g       .text	00000000 _etext
10203aac g     O .bss	00000004 running
10200536 g     F .text	0000002e display_queue
10203ab0 g     O .bss	00000280 mailbox
102007bc g     F .text	00000078 unblock_single_waiting_process
10201640 g     F .text	00000062 find_blocked_proc_by_id
102024e0 g       .text	00000000 __DTOR_END__
102000c4 g       .text	00000000 asm_timer_entry
10202a2d g       .text	00000000 __FINI_SECTION__
10200720 g     F .text	00000048 malloc
10200c84 g     F .text	0000001e message_type
102024a8 g     F .text	00000026 sleep
102023b2 g     F .text	00000044 init_timer
10203d30 g     O .bss	00000004 init_key_tail
10201722 g     F .text	0000006a uprintf
00000000 g       *ABS*	00000000 __DYNAMIC
10201a58 g     F .text	000002b6 kcd
10200cc4 g     F .text	00000054 write_message
10202a52 g     O .data	00000004 Ticks
10500000 g     O __RTX_TEST_DATA__	00000020 g_test_fixture
10300000 g       *ABS*	00000000 __REGISTER_RTX_ENTRY__
10202a58 g     O .bss	00000004 Hours
1020249a g     F .text	0000000e null_process
102001e0 g     F .text	0000003c rtx_dbug_outs
10203d34 g     O .bss	00000001 CharIn
10200ec0 g     F .text	0000004e process_bootstrap
10202a70 g     O .bss	00000004 old_stack
102006b0 g     F .text	00000008 display_mailbox
10200f0e g     F .text	0000000e clear_priority
10380000 g       *ABS*	00000000 __REGISTER_TEST_PROCS_ENTRY__
10200e3e g     F .text	00000076 get_process_priority
1020021c g     F .text	00000030 rtx_dbug_out_block
10202a25 g       .text	00000000 __INIT_SECTION__
10203d36 g     O .bss	00000100 memoryBlocks
10200834 g     F .text	000000ae request_memory_block
102006b8 g     F .text	00000008 display_msg_log
10201a0c g     F .text	0000004a register_command
10200d34 g     F .text	0000010a set_process_priority
10203e36 g     O .bss	00000004 temp_sp
1020147c g     F .text	000001c4 context_switch
10203e3a g     O .bss	00000004 proc_pointer
102020e2 g     F .text	0000000a set_system_time
102001c0 g     F .text	00000020 rtx_dbug_out_char
10203e3e g     O .bss	00000010 ready_queue
102024d0 g       .text	00000000 __CTOR_LIST__
10202a48 g     O .data	00000009 TimeString
10203e4e g     O .bss	00000004 msg_length
10200768 g     F .text	00000054 proc_malloc
1020024c g     F .text	0000006c print_int
1020178c g     F .text	0000007a uprintn
1020095c g     F .text	00000146 send_message
10203e52 g     O .bss	00000004 command_flag
10203e78 g       .bss	00000000 __end
10202a80 g     O .bss	00001000 main_stack
102012da g     F .text	000001a2 remove_blocked_process
10203e56 g     O .bss	00000004 current_command
10201806 g     F .text	00000206 c_serial_handler
10202178 g     F .text	00000054 init_memory
10203e5a g     O .bss	00000004 red_lever
1020229e g     F .text	0000004c init_scheduler
10200fc4 g     F .text	000000ec insert_new_process
102016a2 g     F .text	0000000c atomic_up
10203e5e g     O .bss	00000004 sender_ID
102008e2 g     F .text	0000007a release_memory_block
1020224e g     F .text	00000050 init_queues
102021cc g     F .text	00000082 init_mailbox
10202a58 g       .bss	00000000 __bss_start
102006c8 g     F .text	00000058 main
10202a38 g     O .data	00000004 heap
10200bc0 g     F .text	000000c4 unblock_waiting_procs
10203e62 g     O .bss	00000004 timer_display
102016ae g     F .text	0000000c atomic_down
10200158 g       .text	00000000 display_all
10200078 g       .text	00000000 asm_serial_entry
10203e66 g     O .bss	00000004 init_blocks_head
102024d8 g       .text	00000000 __CTOR_END__
10202a3c g     O .data	00000005 crlfgt
102022ea g     F .text	000000c8 init_io
10203e6a g     O .bss	00000004 total_procs
102024d8 g       .text	00000000 __DTOR_LIST__
102006c0 g     F .text	00000008 display_hotkeys
102002d4 g     F .text	000001aa exception
102016ee g     F .text	00000034 clear_message
1020214c g     F .text	0000002c init_traps
102023f6 g     F .text	00000074 register_commands
102020ec g     F .text	00000060 create_pib
10202a58 g       .data	00000000 _edata
10201d10 g     F .text	00000042 crt
10200aa2 g     F .text	00000114 receive_message
10203e78 g       .bss	00000000 _end
10200bb6 g     F .text	0000000a delayed_send
10200564 g     F .text	0000014c display_queue_all
10100000 g       *ABS*	00000000 __RTX_ENTRY__
10200f1c g     F .text	000000a8 insert_process
10200eb4 g     F .text	0000000c release_processor
1020246a g     F .text	00000030 system_kickoff
10202a5c g     O .bss	00000004 Minutes
10202a60 g     O .bss	00000004 Seconds
10201d8a g     F .text	00000358 wallclock
10203e6e g     O .bss	00000001 CharOut
102016bc g     F .text	00000032 store_message
1020117e g     F .text	0000015c insert_blocked_process
10203e70 g     O .bss	00000004 kcd_msg
102002b8 g     F .text	0000001c rtx_dbug_outs_int


Disassembly of section .text:

10200000 <process_switch-0x20>:
10200000:	23cf 1020 2a70 	movel %sp,10202a70 <old_stack>
10200006:	2e7c 1020 3a80 	moveal #270547584,%sp
1020000c:	4eb9 1020 06c8 	jsr 102006c8 <main>
10200012:	2e79 1020 2a70 	moveal 10202a70 <old_stack>,%sp
10200018:	2e00           	movel %d0,%d7
1020001a:	7000           	moveq #0,%d0
1020001c:	4e4f           	trap #15
	...

10200020 <process_switch>:
10200020:	46fc 2700      	movew #9984,%sr
10200024:	2f00           	movel %d0,%sp@-
10200026:	2f01           	movel %d1,%sp@-
10200028:	2f02           	movel %d2,%sp@-
1020002a:	2f03           	movel %d3,%sp@-
1020002c:	2f04           	movel %d4,%sp@-
1020002e:	2f05           	movel %d5,%sp@-
10200030:	2f06           	movel %d6,%sp@-
10200032:	2f07           	movel %d7,%sp@-
10200034:	2f08           	movel %a0,%sp@-
10200036:	2f09           	movel %a1,%sp@-
10200038:	2f0a           	movel %a2,%sp@-
1020003a:	2f0b           	movel %a3,%sp@-
1020003c:	2f0c           	movel %a4,%sp@-
1020003e:	2f0d           	movel %a5,%sp@-
10200040:	200e           	movel %fp,%d0
10200042:	23c0 1020 3a80 	movel %d0,10203a80 <old_fp>
10200048:	4eb9 1020 147c 	jsr 1020147c <context_switch>
1020004e:	2039 1020 3a80 	movel 10203a80 <old_fp>,%d0
10200054:	2c40           	moveal %d0,%fp
10200056:	2a5f           	moveal %sp@+,%a5
10200058:	285f           	moveal %sp@+,%a4
1020005a:	265f           	moveal %sp@+,%a3
1020005c:	245f           	moveal %sp@+,%a2
1020005e:	225f           	moveal %sp@+,%a1
10200060:	205f           	moveal %sp@+,%a0
10200062:	2e1f           	movel %sp@+,%d7
10200064:	2c1f           	movel %sp@+,%d6
10200066:	2a1f           	movel %sp@+,%d5
10200068:	281f           	movel %sp@+,%d4
1020006a:	261f           	movel %sp@+,%d3
1020006c:	241f           	movel %sp@+,%d2
1020006e:	221f           	movel %sp@+,%d1
10200070:	201f           	movel %sp@+,%d0
10200072:	46fc 2000      	movew #8192,%sr
10200076:	4e73           	rte

10200078 <asm_serial_entry>:
10200078:	46fc 2700      	movew #9984,%sr
1020007c:	2f00           	movel %d0,%sp@-
1020007e:	2f01           	movel %d1,%sp@-
10200080:	2f02           	movel %d2,%sp@-
10200082:	2f03           	movel %d3,%sp@-
10200084:	2f04           	movel %d4,%sp@-
10200086:	2f05           	movel %d5,%sp@-
10200088:	2f06           	movel %d6,%sp@-
1020008a:	2f07           	movel %d7,%sp@-
1020008c:	2f08           	movel %a0,%sp@-
1020008e:	2f09           	movel %a1,%sp@-
10200090:	2f0a           	movel %a2,%sp@-
10200092:	2f0b           	movel %a3,%sp@-
10200094:	2f0c           	movel %a4,%sp@-
10200096:	2f0d           	movel %a5,%sp@-
10200098:	2f0e           	movel %fp,%sp@-
1020009a:	4eb9 1020 1806 	jsr 10201806 <c_serial_handler>
102000a0:	2c5f           	moveal %sp@+,%fp
102000a2:	2a5f           	moveal %sp@+,%a5
102000a4:	285f           	moveal %sp@+,%a4
102000a6:	265f           	moveal %sp@+,%a3
102000a8:	245f           	moveal %sp@+,%a2
102000aa:	225f           	moveal %sp@+,%a1
102000ac:	205f           	moveal %sp@+,%a0
102000ae:	2e1f           	movel %sp@+,%d7
102000b0:	2c1f           	movel %sp@+,%d6
102000b2:	2a1f           	movel %sp@+,%d5
102000b4:	281f           	movel %sp@+,%d4
102000b6:	261f           	movel %sp@+,%d3
102000b8:	241f           	movel %sp@+,%d2
102000ba:	221f           	movel %sp@+,%d1
102000bc:	201f           	movel %sp@+,%d0
102000be:	46fc 2000      	movew #8192,%sr
102000c2:	4e73           	rte

102000c4 <asm_timer_entry>:
102000c4:	2f00           	movel %d0,%sp@-
102000c6:	2f01           	movel %d1,%sp@-
102000c8:	2f02           	movel %d2,%sp@-
102000ca:	2f03           	movel %d3,%sp@-
102000cc:	2f04           	movel %d4,%sp@-
102000ce:	2f05           	movel %d5,%sp@-
102000d0:	2f06           	movel %d6,%sp@-
102000d2:	2f07           	movel %d7,%sp@-
102000d4:	2f08           	movel %a0,%sp@-
102000d6:	2f09           	movel %a1,%sp@-
102000d8:	2f0a           	movel %a2,%sp@-
102000da:	2f0b           	movel %a3,%sp@-
102000dc:	2f0c           	movel %a4,%sp@-
102000de:	2f0d           	movel %a5,%sp@-
102000e0:	2f0e           	movel %fp,%sp@-
102000e2:	4eb9 1020 1d54 	jsr 10201d54 <c_timer_handler>
102000e8:	2c5f           	moveal %sp@+,%fp
102000ea:	2a5f           	moveal %sp@+,%a5
102000ec:	285f           	moveal %sp@+,%a4
102000ee:	265f           	moveal %sp@+,%a3
102000f0:	245f           	moveal %sp@+,%a2
102000f2:	225f           	moveal %sp@+,%a1
102000f4:	205f           	moveal %sp@+,%a0
102000f6:	2e1f           	movel %sp@+,%d7
102000f8:	2c1f           	movel %sp@+,%d6
102000fa:	2a1f           	movel %sp@+,%d5
102000fc:	281f           	movel %sp@+,%d4
102000fe:	261f           	movel %sp@+,%d3
10200100:	241f           	movel %sp@+,%d2
10200102:	221f           	movel %sp@+,%d1
10200104:	201f           	movel %sp@+,%d0
10200106:	4e73           	rte

10200108 <display_task_manager>:
10200108:	2f00           	movel %d0,%sp@-
1020010a:	2f01           	movel %d1,%sp@-
1020010c:	2f02           	movel %d2,%sp@-
1020010e:	2f03           	movel %d3,%sp@-
10200110:	2f04           	movel %d4,%sp@-
10200112:	2f05           	movel %d5,%sp@-
10200114:	2f06           	movel %d6,%sp@-
10200116:	2f07           	movel %d7,%sp@-
10200118:	2f08           	movel %a0,%sp@-
1020011a:	2f09           	movel %a1,%sp@-
1020011c:	2f0a           	movel %a2,%sp@-
1020011e:	2f0b           	movel %a3,%sp@-
10200120:	2f0c           	movel %a4,%sp@-
10200122:	2f0d           	movel %a5,%sp@-
10200124:	200e           	movel %fp,%d0
10200126:	23c0 1020 3a80 	movel %d0,10203a80 <old_fp>
1020012c:	4eb9 1020 047e 	jsr 1020047e <task_manager>
10200132:	2039 1020 3a80 	movel 10203a80 <old_fp>,%d0
10200138:	2c40           	moveal %d0,%fp
1020013a:	2a5f           	moveal %sp@+,%a5
1020013c:	285f           	moveal %sp@+,%a4
1020013e:	265f           	moveal %sp@+,%a3
10200140:	245f           	moveal %sp@+,%a2
10200142:	225f           	moveal %sp@+,%a1
10200144:	205f           	moveal %sp@+,%a0
10200146:	2e1f           	movel %sp@+,%d7
10200148:	2c1f           	movel %sp@+,%d6
1020014a:	2a1f           	movel %sp@+,%d5
1020014c:	281f           	movel %sp@+,%d4
1020014e:	261f           	movel %sp@+,%d3
10200150:	241f           	movel %sp@+,%d2
10200152:	221f           	movel %sp@+,%d1
10200154:	201f           	movel %sp@+,%d0
10200156:	4e73           	rte

10200158 <display_all>:
10200158:	2f00           	movel %d0,%sp@-
1020015a:	2f01           	movel %d1,%sp@-
1020015c:	2f02           	movel %d2,%sp@-
1020015e:	2f03           	movel %d3,%sp@-
10200160:	2f04           	movel %d4,%sp@-
10200162:	2f05           	movel %d5,%sp@-
10200164:	2f06           	movel %d6,%sp@-
10200166:	2f07           	movel %d7,%sp@-
10200168:	2f08           	movel %a0,%sp@-
1020016a:	2f09           	movel %a1,%sp@-
1020016c:	2f0a           	movel %a2,%sp@-
1020016e:	2f0b           	movel %a3,%sp@-
10200170:	2f0c           	movel %a4,%sp@-
10200172:	2f0d           	movel %a5,%sp@-
10200174:	200e           	movel %fp,%d0
10200176:	23c0 1020 3a80 	movel %d0,10203a80 <old_fp>
1020017c:	4eb9 1020 0564 	jsr 10200564 <display_queue_all>
10200182:	2039 1020 3a80 	movel 10203a80 <old_fp>,%d0
10200188:	2c40           	moveal %d0,%fp
1020018a:	2a5f           	moveal %sp@+,%a5
1020018c:	285f           	moveal %sp@+,%a4
1020018e:	265f           	moveal %sp@+,%a3
10200190:	245f           	moveal %sp@+,%a2
10200192:	225f           	moveal %sp@+,%a1
10200194:	205f           	moveal %sp@+,%a0
10200196:	2e1f           	movel %sp@+,%d7
10200198:	2c1f           	movel %sp@+,%d6
1020019a:	2a1f           	movel %sp@+,%d5
1020019c:	281f           	movel %sp@+,%d4
1020019e:	261f           	movel %sp@+,%d3
102001a0:	241f           	movel %sp@+,%d2
102001a2:	221f           	movel %sp@+,%d1
102001a4:	201f           	movel %sp@+,%d0
102001a6:	4e73           	rte

102001a8 <coldfire_vbr_init>:
102001a8:	4e56 0000      	linkw %fp,#0
102001ac:	2f08           	movel %a0,%sp@-
102001ae:	207c 1000 0000 	moveal #268435456,%a0
102001b4:	4e7b 8801      	movec %a0,%vbr
102001b8:	205f           	moveal %sp@+,%a0
102001ba:	4280           	clrl %d0
102001bc:	4e5e           	unlk %fp
102001be:	4e75           	rts

102001c0 <rtx_dbug_out_char>:
102001c0:	4e56 fffc      	linkw %fp,#-4
102001c4:	202e 0008      	movel %fp@(8),%d0
102001c8:	1d40 fffe      	moveb %d0,%fp@(-2)
102001cc:	2f00           	movel %d0,%sp@-
102001ce:	2f01           	movel %d1,%sp@-
102001d0:	222e 0008      	movel %fp@(8),%d1
102001d4:	7013           	moveq #19,%d0
102001d6:	4e4f           	trap #15
102001d8:	221f           	movel %sp@+,%d1
102001da:	201f           	movel %sp@+,%d0
102001dc:	4e5e           	unlk %fp
102001de:	4e75           	rts

102001e0 <rtx_dbug_outs>:
102001e0:	4e56 fffc      	linkw %fp,#-4
102001e4:	4aae 0008      	tstl %fp@(8)
102001e8:	661c           	bnes 10200206 <rtx_dbug_outs+0x26>
102001ea:	70ff           	moveq #-1,%d0
102001ec:	2d40 fffc      	movel %d0,%fp@(-4)
102001f0:	6022           	bras 10200214 <rtx_dbug_outs+0x34>
102001f2:	206e 0008      	moveal %fp@(8),%a0
102001f6:	1010           	moveb %a0@,%d0
102001f8:	49c0           	extbl %d0
102001fa:	52ae 0008      	addql #1,%fp@(8)
102001fe:	2f00           	movel %d0,%sp@-
10200200:	4eba ffbe      	jsr %pc@(102001c0 <rtx_dbug_out_char>)
10200204:	588f           	addql #4,%sp
10200206:	206e 0008      	moveal %fp@(8),%a0
1020020a:	1010           	moveb %a0@,%d0
1020020c:	4a00           	tstb %d0
1020020e:	66e2           	bnes 102001f2 <rtx_dbug_outs+0x12>
10200210:	42ae fffc      	clrl %fp@(-4)
10200214:	202e fffc      	movel %fp@(-4),%d0
10200218:	4e5e           	unlk %fp
1020021a:	4e75           	rts

1020021c <rtx_dbug_out_block>:
1020021c:	4e56 fffc      	linkw %fp,#-4
10200220:	42ae fffc      	clrl %fp@(-4)
10200224:	6018           	bras 1020023e <rtx_dbug_out_block+0x22>
10200226:	206e 0008      	moveal %fp@(8),%a0
1020022a:	1010           	moveb %a0@,%d0
1020022c:	49c0           	extbl %d0
1020022e:	52ae 0008      	addql #1,%fp@(8)
10200232:	2f00           	movel %d0,%sp@-
10200234:	4eba ff8a      	jsr %pc@(102001c0 <rtx_dbug_out_char>)
10200238:	588f           	addql #4,%sp
1020023a:	52ae fffc      	addql #1,%fp@(-4)
1020023e:	707f           	moveq #127,%d0
10200240:	b0ae fffc      	cmpl %fp@(-4),%d0
10200244:	6ce0           	bges 10200226 <rtx_dbug_out_block+0xa>
10200246:	4280           	clrl %d0
10200248:	4e5e           	unlk %fp
1020024a:	4e75           	rts

1020024c <print_int>:
1020024c:	4e56 fff4      	linkw %fp,#-12
10200250:	2f03           	movel %d3,%sp@-
10200252:	2f02           	movel %d2,%sp@-
10200254:	1f3c 0000      	moveb #0,%sp@-
10200258:	202e 0008      	movel %fp@(8),%d0
1020025c:	2200           	movel %d0,%d1
1020025e:	740a           	moveq #10,%d2
10200260:	4c42 1003      	remul %d2,%d3,%d1
10200264:	4c42 1001      	remul %d2,%d1,%d1
10200268:	2003           	movel %d3,%d0
1020026a:	1000           	moveb %d0,%d0
1020026c:	0680 0000 0030 	addil #48,%d0
10200272:	1000           	moveb %d0,%d0
10200274:	1d40 ffff      	moveb %d0,%fp@(-1)
10200278:	202e 0008      	movel %fp@(8),%d0
1020027c:	720a           	moveq #10,%d1
1020027e:	4c41 0002      	remul %d1,%d2,%d0
10200282:	4c41 0000      	remul %d1,%d0,%d0
10200286:	2d40 0008      	movel %d0,%fp@(8)
1020028a:	1f2e ffff      	moveb %fp@(-1),%sp@-
1020028e:	4aae 0008      	tstl %fp@(8)
10200292:	66c4           	bnes 10200258 <print_int+0xc>
10200294:	1d5f fffe      	moveb %sp@+,%fp@(-2)
10200298:	102e fffe      	moveb %fp@(-2),%d0
1020029c:	49c0           	extbl %d0
1020029e:	2f00           	movel %d0,%sp@-
102002a0:	4eba ff1e      	jsr %pc@(102001c0 <rtx_dbug_out_char>)
102002a4:	588f           	addql #4,%sp
102002a6:	4a2e fffe      	tstb %fp@(-2)
102002aa:	66e8           	bnes 10200294 <print_int+0x48>
102002ac:	242e ffec      	movel %fp@(-20),%d2
102002b0:	262e fff0      	movel %fp@(-16),%d3
102002b4:	4e5e           	unlk %fp
102002b6:	4e75           	rts

102002b8 <rtx_dbug_outs_int>:
102002b8:	4e56 0000      	linkw %fp,#0
102002bc:	2f2e 0008      	movel %fp@(8),%sp@-
102002c0:	4eba ff1e      	jsr %pc@(102001e0 <rtx_dbug_outs>)
102002c4:	588f           	addql #4,%sp
102002c6:	2f2e 000c      	movel %fp@(12),%sp@-
102002ca:	4eba ff80      	jsr %pc@(1020024c <print_int>)
102002ce:	588f           	addql #4,%sp
102002d0:	4e5e           	unlk %fp
102002d2:	4e75           	rts

102002d4 <exception>:
102002d4:	4e56 0000      	linkw %fp,#0
102002d8:	4aae 0008      	tstl %fp@(8)
102002dc:	6612           	bnes 102002f0 <exception+0x1c>
102002de:	4879 1020 24e0 	pea 102024e0 <__DTOR_END__>
102002e4:	4eb9 1020 1722 	jsr 10201722 <uprintf>
102002ea:	588f           	addql #4,%sp
102002ec:	6000 0160      	braw 1020044e <exception+0x17a>
102002f0:	7001           	moveq #1,%d0
102002f2:	b0ae 0008      	cmpl %fp@(8),%d0
102002f6:	6612           	bnes 1020030a <exception+0x36>
102002f8:	4879 1020 24f3 	pea 102024f3 <__DTOR_END__+0x13>
102002fe:	4eb9 1020 1722 	jsr 10201722 <uprintf>
10200304:	588f           	addql #4,%sp
10200306:	6000 0146      	braw 1020044e <exception+0x17a>
1020030a:	7002           	moveq #2,%d0
1020030c:	b0ae 0008      	cmpl %fp@(8),%d0
10200310:	6612           	bnes 10200324 <exception+0x50>
10200312:	4879 1020 2510 	pea 10202510 <__DTOR_END__+0x30>
10200318:	4eb9 1020 1722 	jsr 10201722 <uprintf>
1020031e:	588f           	addql #4,%sp
10200320:	6000 012c      	braw 1020044e <exception+0x17a>
10200324:	7003           	moveq #3,%d0
10200326:	b0ae 0008      	cmpl %fp@(8),%d0
1020032a:	6612           	bnes 1020033e <exception+0x6a>
1020032c:	4879 1020 2542 	pea 10202542 <__DTOR_END__+0x62>
10200332:	4eb9 1020 1722 	jsr 10201722 <uprintf>
10200338:	588f           	addql #4,%sp
1020033a:	6000 0112      	braw 1020044e <exception+0x17a>
1020033e:	7004           	moveq #4,%d0
10200340:	b0ae 0008      	cmpl %fp@(8),%d0
10200344:	6612           	bnes 10200358 <exception+0x84>
10200346:	4879 1020 2590 	pea 10202590 <__DTOR_END__+0xb0>
1020034c:	4eb9 1020 1722 	jsr 10201722 <uprintf>
10200352:	588f           	addql #4,%sp
10200354:	6000 00f8      	braw 1020044e <exception+0x17a>
10200358:	7005           	moveq #5,%d0
1020035a:	b0ae 0008      	cmpl %fp@(8),%d0
1020035e:	6612           	bnes 10200372 <exception+0x9e>
10200360:	4879 1020 25ac 	pea 102025ac <__DTOR_END__+0xcc>
10200366:	4eb9 1020 1722 	jsr 10201722 <uprintf>
1020036c:	588f           	addql #4,%sp
1020036e:	6000 00de      	braw 1020044e <exception+0x17a>
10200372:	7006           	moveq #6,%d0
10200374:	b0ae 0008      	cmpl %fp@(8),%d0
10200378:	6612           	bnes 1020038c <exception+0xb8>
1020037a:	4879 1020 25c5 	pea 102025c5 <__DTOR_END__+0xe5>
10200380:	4eb9 1020 1722 	jsr 10201722 <uprintf>
10200386:	588f           	addql #4,%sp
10200388:	6000 00c4      	braw 1020044e <exception+0x17a>
1020038c:	7007           	moveq #7,%d0
1020038e:	b0ae 0008      	cmpl %fp@(8),%d0
10200392:	6612           	bnes 102003a6 <exception+0xd2>
10200394:	4879 1020 25ec 	pea 102025ec <__DTOR_END__+0x10c>
1020039a:	4eb9 1020 1722 	jsr 10201722 <uprintf>
102003a0:	588f           	addql #4,%sp
102003a2:	6000 00aa      	braw 1020044e <exception+0x17a>
102003a6:	7008           	moveq #8,%d0
102003a8:	b0ae 0008      	cmpl %fp@(8),%d0
102003ac:	6612           	bnes 102003c0 <exception+0xec>
102003ae:	4879 1020 260c 	pea 1020260c <__DTOR_END__+0x12c>
102003b4:	4eb9 1020 1722 	jsr 10201722 <uprintf>
102003ba:	588f           	addql #4,%sp
102003bc:	6000 0090      	braw 1020044e <exception+0x17a>
102003c0:	7009           	moveq #9,%d0
102003c2:	b0ae 0008      	cmpl %fp@(8),%d0
102003c6:	6610           	bnes 102003d8 <exception+0x104>
102003c8:	4879 1020 262b 	pea 1020262b <__DTOR_END__+0x14b>
102003ce:	4eb9 1020 1722 	jsr 10201722 <uprintf>
102003d4:	588f           	addql #4,%sp
102003d6:	6076           	bras 1020044e <exception+0x17a>
102003d8:	700a           	moveq #10,%d0
102003da:	b0ae 0008      	cmpl %fp@(8),%d0
102003de:	6610           	bnes 102003f0 <exception+0x11c>
102003e0:	4879 1020 2646 	pea 10202646 <__DTOR_END__+0x166>
102003e6:	4eb9 1020 1722 	jsr 10201722 <uprintf>
102003ec:	588f           	addql #4,%sp
102003ee:	605e           	bras 1020044e <exception+0x17a>
102003f0:	700b           	moveq #11,%d0
102003f2:	b0ae 0008      	cmpl %fp@(8),%d0
102003f6:	6610           	bnes 10200408 <exception+0x134>
102003f8:	4879 1020 267b 	pea 1020267b <__DTOR_END__+0x19b>
102003fe:	4eb9 1020 1722 	jsr 10201722 <uprintf>
10200404:	588f           	addql #4,%sp
10200406:	6046           	bras 1020044e <exception+0x17a>
10200408:	700c           	moveq #12,%d0
1020040a:	b0ae 0008      	cmpl %fp@(8),%d0
1020040e:	6610           	bnes 10200420 <exception+0x14c>
10200410:	4879 1020 26e6 	pea 102026e6 <__DTOR_END__+0x206>
10200416:	4eb9 1020 1722 	jsr 10201722 <uprintf>
1020041c:	588f           	addql #4,%sp
1020041e:	602e           	bras 1020044e <exception+0x17a>
10200420:	700d           	moveq #13,%d0
10200422:	b0ae 0008      	cmpl %fp@(8),%d0
10200426:	6610           	bnes 10200438 <exception+0x164>
10200428:	4879 1020 2713 	pea 10202713 <__DTOR_END__+0x233>
1020042e:	4eb9 1020 1722 	jsr 10201722 <uprintf>
10200434:	588f           	addql #4,%sp
10200436:	6016           	bras 1020044e <exception+0x17a>
10200438:	700e           	moveq #14,%d0
1020043a:	b0ae 0008      	cmpl %fp@(8),%d0
1020043e:	660e           	bnes 1020044e <exception+0x17a>
10200440:	4879 1020 273c 	pea 1020273c <__DTOR_END__+0x25c>
10200446:	4eb9 1020 1722 	jsr 10201722 <uprintf>
1020044c:	588f           	addql #4,%sp
1020044e:	700f           	moveq #15,%d0
10200450:	b0ae 0008      	cmpl %fp@(8),%d0
10200454:	660e           	bnes 10200464 <exception+0x190>
10200456:	4879 1020 276a 	pea 1020276a <__DTOR_END__+0x28a>
1020045c:	4eb9 1020 1722 	jsr 10201722 <uprintf>
10200462:	588f           	addql #4,%sp
10200464:	7010           	moveq #16,%d0
10200466:	b0ae 0008      	cmpl %fp@(8),%d0
1020046a:	660e           	bnes 1020047a <exception+0x1a6>
1020046c:	4879 1020 2795 	pea 10202795 <__DTOR_END__+0x2b5>
10200472:	4eb9 1020 1722 	jsr 10201722 <uprintf>
10200478:	588f           	addql #4,%sp
1020047a:	4e5e           	unlk %fp
1020047c:	4e75           	rts

1020047e <task_manager>:
1020047e:	4e56 fff8      	linkw %fp,#-8
10200482:	41f9 1020 3e66 	lea 10203e66 <init_blocks_head>,%a0
10200488:	2d50 fff8      	movel %a0@,%fp@(-8)
1020048c:	4879 1020 27f1 	pea 102027f1 <__DTOR_END__+0x311>
10200492:	4eba fd4c      	jsr %pc@(102001e0 <rtx_dbug_outs>)
10200496:	588f           	addql #4,%sp
10200498:	4879 1020 27fe 	pea 102027fe <__DTOR_END__+0x31e>
1020049e:	4eba fd40      	jsr %pc@(102001e0 <rtx_dbug_outs>)
102004a2:	588f           	addql #4,%sp
102004a4:	4879 1020 2814 	pea 10202814 <__DTOR_END__+0x334>
102004aa:	4eba fd34      	jsr %pc@(102001e0 <rtx_dbug_outs>)
102004ae:	588f           	addql #4,%sp
102004b0:	4879 1020 27fe 	pea 102027fe <__DTOR_END__+0x31e>
102004b6:	4eba fd28      	jsr %pc@(102001e0 <rtx_dbug_outs>)
102004ba:	588f           	addql #4,%sp
102004bc:	6062           	bras 10200520 <task_manager+0xa2>
102004be:	206e fff8      	moveal %fp@(-8),%a0
102004c2:	2d68 0014 fffc 	movel %a0@(20),%fp@(-4)
102004c8:	206e fff8      	moveal %fp@(-8),%a0
102004cc:	2010           	movel %a0@,%d0
102004ce:	2f00           	movel %d0,%sp@-
102004d0:	4879 1020 282a 	pea 1020282a <__DTOR_END__+0x34a>
102004d6:	4eba fde0      	jsr %pc@(102002b8 <rtx_dbug_outs_int>)
102004da:	508f           	addql #8,%sp
102004dc:	206e fffc      	moveal %fp@(-4),%a0
102004e0:	2028 0004      	movel %a0@(4),%d0
102004e4:	2f00           	movel %d0,%sp@-
102004e6:	4879 1020 2830 	pea 10202830 <__DTOR_END__+0x350>
102004ec:	4eba fdca      	jsr %pc@(102002b8 <rtx_dbug_outs_int>)
102004f0:	508f           	addql #8,%sp
102004f2:	206e fffc      	moveal %fp@(-4),%a0
102004f6:	2028 0008      	movel %a0@(8),%d0
102004fa:	2f00           	movel %d0,%sp@-
102004fc:	4879 1020 2830 	pea 10202830 <__DTOR_END__+0x350>
10200502:	4eba fdb4      	jsr %pc@(102002b8 <rtx_dbug_outs_int>)
10200506:	508f           	addql #8,%sp
10200508:	4879 1020 2836 	pea 10202836 <__DTOR_END__+0x356>
1020050e:	4eba fcd0      	jsr %pc@(102001e0 <rtx_dbug_outs>)
10200512:	588f           	addql #4,%sp
10200514:	206e fff8      	moveal %fp@(-8),%a0
10200518:	2028 0010      	movel %a0@(16),%d0
1020051c:	2d40 fff8      	movel %d0,%fp@(-8)
10200520:	4aae fff8      	tstl %fp@(-8)
10200524:	6698           	bnes 102004be <task_manager+0x40>
10200526:	4879 1020 283a 	pea 1020283a <__DTOR_END__+0x35a>
1020052c:	4eba fcb2      	jsr %pc@(102001e0 <rtx_dbug_outs>)
10200530:	588f           	addql #4,%sp
10200532:	4e5e           	unlk %fp
10200534:	4e75           	rts

10200536 <display_queue>:
10200536:	4e56 fffc      	linkw %fp,#-4
1020053a:	7001           	moveq #1,%d0
1020053c:	b0ae 0008      	cmpl %fp@(8),%d0
10200540:	661e           	bnes 10200560 <display_queue+0x2a>
10200542:	42ae fffc      	clrl %fp@(-4)
10200546:	6010           	bras 10200558 <display_queue+0x22>
10200548:	4879 1020 2852 	pea 10202852 <__DTOR_END__+0x372>
1020054e:	4eba fc90      	jsr %pc@(102001e0 <rtx_dbug_outs>)
10200552:	588f           	addql #4,%sp
10200554:	52ae fffc      	addql #1,%fp@(-4)
10200558:	7003           	moveq #3,%d0
1020055a:	b0ae fffc      	cmpl %fp@(-4),%d0
1020055e:	6ce8           	bges 10200548 <display_queue+0x12>
10200560:	4e5e           	unlk %fp
10200562:	4e75           	rts

10200564 <display_queue_all>:
10200564:	4e56 fff8      	linkw %fp,#-8
10200568:	42ae fffc      	clrl %fp@(-4)
1020056c:	605e           	bras 102005cc <display_queue_all+0x68>
1020056e:	202e fffc      	movel %fp@(-4),%d0
10200572:	2f00           	movel %d0,%sp@-
10200574:	4879 1020 2874 	pea 10202874 <__DTOR_END__+0x394>
1020057a:	4eba fd3c      	jsr %pc@(102002b8 <rtx_dbug_outs_int>)
1020057e:	508f           	addql #8,%sp
10200580:	202e fffc      	movel %fp@(-4),%d0
10200584:	e588           	lsll #2,%d0
10200586:	41f9 1020 3e3e 	lea 10203e3e <ready_queue>,%a0
1020058c:	43f0 0800      	lea %a0@(00000000,%d0:l),%a1
10200590:	2d51 fff8      	movel %a1@,%fp@(-8)
10200594:	6020           	bras 102005b6 <display_queue_all+0x52>
10200596:	206e fff8      	moveal %fp@(-8),%a0
1020059a:	2010           	movel %a0@,%d0
1020059c:	2f00           	movel %d0,%sp@-
1020059e:	4879 1020 288e 	pea 1020288e <__DTOR_END__+0x3ae>
102005a4:	4eba fd12      	jsr %pc@(102002b8 <rtx_dbug_outs_int>)
102005a8:	508f           	addql #8,%sp
102005aa:	206e fff8      	moveal %fp@(-8),%a0
102005ae:	2028 0018      	movel %a0@(24),%d0
102005b2:	2d40 fff8      	movel %d0,%fp@(-8)
102005b6:	4aae fff8      	tstl %fp@(-8)
102005ba:	66da           	bnes 10200596 <display_queue_all+0x32>
102005bc:	4879 1020 289a 	pea 1020289a <__DTOR_END__+0x3ba>
102005c2:	4eba fc1c      	jsr %pc@(102001e0 <rtx_dbug_outs>)
102005c6:	588f           	addql #4,%sp
102005c8:	52ae fffc      	addql #1,%fp@(-4)
102005cc:	7003           	moveq #3,%d0
102005ce:	b0ae fffc      	cmpl %fp@(-4),%d0
102005d2:	6c9a           	bges 1020056e <display_queue_all+0xa>
102005d4:	42ae fffc      	clrl %fp@(-4)
102005d8:	605e           	bras 10200638 <display_queue_all+0xd4>
102005da:	202e fffc      	movel %fp@(-4),%d0
102005de:	2f00           	movel %d0,%sp@-
102005e0:	4879 1020 289d 	pea 1020289d <__DTOR_END__+0x3bd>
102005e6:	4eba fcd0      	jsr %pc@(102002b8 <rtx_dbug_outs_int>)
102005ea:	508f           	addql #8,%sp
102005ec:	202e fffc      	movel %fp@(-4),%d0
102005f0:	e588           	lsll #2,%d0
102005f2:	41f9 1020 3a98 	lea 10203a98 <bmsg_queue>,%a0
102005f8:	43f0 0800      	lea %a0@(00000000,%d0:l),%a1
102005fc:	2d51 fff8      	movel %a1@,%fp@(-8)
10200600:	6020           	bras 10200622 <display_queue_all+0xbe>
10200602:	206e fff8      	moveal %fp@(-8),%a0
10200606:	2010           	movel %a0@,%d0
10200608:	2f00           	movel %d0,%sp@-
1020060a:	4879 1020 288e 	pea 1020288e <__DTOR_END__+0x3ae>
10200610:	4eba fca6      	jsr %pc@(102002b8 <rtx_dbug_outs_int>)
10200614:	508f           	addql #8,%sp
10200616:	206e fff8      	moveal %fp@(-8),%a0
1020061a:	2028 0018      	movel %a0@(24),%d0
1020061e:	2d40 fff8      	movel %d0,%fp@(-8)
10200622:	4aae fff8      	tstl %fp@(-8)
10200626:	66da           	bnes 10200602 <display_queue_all+0x9e>
10200628:	4879 1020 289a 	pea 1020289a <__DTOR_END__+0x3ba>
1020062e:	4eba fbb0      	jsr %pc@(102001e0 <rtx_dbug_outs>)
10200632:	588f           	addql #4,%sp
10200634:	52ae fffc      	addql #1,%fp@(-4)
10200638:	7003           	moveq #3,%d0
1020063a:	b0ae fffc      	cmpl %fp@(-4),%d0
1020063e:	6c9a           	bges 102005da <display_queue_all+0x76>
10200640:	42ae fffc      	clrl %fp@(-4)
10200644:	605e           	bras 102006a4 <display_queue_all+0x140>
10200646:	202e fffc      	movel %fp@(-4),%d0
1020064a:	2f00           	movel %d0,%sp@-
1020064c:	4879 1020 28b6 	pea 102028b6 <__DTOR_END__+0x3d6>
10200652:	4eba fc64      	jsr %pc@(102002b8 <rtx_dbug_outs_int>)
10200656:	508f           	addql #8,%sp
10200658:	202e fffc      	movel %fp@(-4),%d0
1020065c:	e588           	lsll #2,%d0
1020065e:	41f9 1020 3a84 	lea 10203a84 <bmem_queue>,%a0
10200664:	43f0 0800      	lea %a0@(00000000,%d0:l),%a1
10200668:	2d51 fff8      	movel %a1@,%fp@(-8)
1020066c:	6020           	bras 1020068e <display_queue_all+0x12a>
1020066e:	206e fff8      	moveal %fp@(-8),%a0
10200672:	2010           	movel %a0@,%d0
10200674:	2f00           	movel %d0,%sp@-
10200676:	4879 1020 288e 	pea 1020288e <__DTOR_END__+0x3ae>
1020067c:	4eba fc3a      	jsr %pc@(102002b8 <rtx_dbug_outs_int>)
10200680:	508f           	addql #8,%sp
10200682:	206e fff8      	moveal %fp@(-8),%a0
10200686:	2028 0018      	movel %a0@(24),%d0
1020068a:	2d40 fff8      	movel %d0,%fp@(-8)
1020068e:	4aae fff8      	tstl %fp@(-8)
10200692:	66da           	bnes 1020066e <display_queue_all+0x10a>
10200694:	4879 1020 289a 	pea 1020289a <__DTOR_END__+0x3ba>
1020069a:	4eba fb44      	jsr %pc@(102001e0 <rtx_dbug_outs>)
1020069e:	588f           	addql #4,%sp
102006a0:	52ae fffc      	addql #1,%fp@(-4)
102006a4:	7003           	moveq #3,%d0
102006a6:	b0ae fffc      	cmpl %fp@(-4),%d0
102006aa:	6c9a           	bges 10200646 <display_queue_all+0xe2>
102006ac:	4e5e           	unlk %fp
102006ae:	4e75           	rts

102006b0 <display_mailbox>:
102006b0:	4e56 0000      	linkw %fp,#0
102006b4:	4e5e           	unlk %fp
102006b6:	4e75           	rts

102006b8 <display_msg_log>:
102006b8:	4e56 0000      	linkw %fp,#0
102006bc:	4e5e           	unlk %fp
102006be:	4e75           	rts

102006c0 <display_hotkeys>:
102006c0:	4e56 0000      	linkw %fp,#0
102006c4:	4e5e           	unlk %fp
102006c6:	4e75           	rts

102006c8 <main>:
102006c8:	4e56 0000      	linkw %fp,#0
102006cc:	4879 1020 28cf 	pea 102028cf <__DTOR_END__+0x3ef>
102006d2:	4eb9 1020 01e0 	jsr 102001e0 <rtx_dbug_outs>
102006d8:	588f           	addql #4,%sp
102006da:	4879 1020 28e5 	pea 102028e5 <__DTOR_END__+0x405>
102006e0:	4eb9 1020 01e0 	jsr 102001e0 <rtx_dbug_outs>
102006e6:	588f           	addql #4,%sp
102006e8:	4eb9 1030 0000 	jsr 10300000 <__REGISTER_RTX_ENTRY__>
102006ee:	4879 1020 2917 	pea 10202917 <__DTOR_END__+0x437>
102006f4:	4eb9 1020 01e0 	jsr 102001e0 <rtx_dbug_outs>
102006fa:	588f           	addql #4,%sp
102006fc:	4eb9 1010 0000 	jsr 10100000 <__RTX_ENTRY__>
10200702:	4879 1020 2940 	pea 10202940 <__DTOR_END__+0x460>
10200708:	4eb9 1020 01e0 	jsr 102001e0 <rtx_dbug_outs>
1020070e:	588f           	addql #4,%sp
10200710:	4879 1020 2966 	pea 10202966 <__DTOR_END__+0x486>
10200716:	4eb9 1020 01e0 	jsr 102001e0 <rtx_dbug_outs>
1020071c:	588f           	addql #4,%sp
1020071e:	60f0           	bras 10200710 <main+0x48>

10200720 <malloc>:
10200720:	4e56 fff8      	linkw %fp,#-8
10200724:	41f9 1020 2a38 	lea 10202a38 <heap>,%a0
1020072a:	2d50 fff8      	movel %a0@,%fp@(-8)
1020072e:	2039 1020 2a38 	movel 10202a38 <heap>,%d0
10200734:	d0ae 0008      	addl %fp@(8),%d0
10200738:	23c0 1020 2a38 	movel %d0,10202a38 <heap>
1020073e:	42ae fffc      	clrl %fp@(-4)
10200742:	6012           	bras 10200756 <malloc+0x36>
10200744:	202e fff8      	movel %fp@(-8),%d0
10200748:	222e fffc      	movel %fp@(-4),%d1
1020074c:	2040           	moveal %d0,%a0
1020074e:	d1c1           	addal %d1,%a0
10200750:	4210           	clrb %a0@
10200752:	52ae fffc      	addql #1,%fp@(-4)
10200756:	202e fffc      	movel %fp@(-4),%d0
1020075a:	b0ae 0008      	cmpl %fp@(8),%d0
1020075e:	65e4           	bcss 10200744 <malloc+0x24>
10200760:	202e fff8      	movel %fp@(-8),%d0
10200764:	4e5e           	unlk %fp
10200766:	4e75           	rts

10200768 <proc_malloc>:
10200768:	4e56 fff4      	linkw %fp,#-12
1020076c:	203c 0000 0200 	movel #512,%d0
10200772:	2d40 fff4      	movel %d0,%fp@(-12)
10200776:	41f9 1020 2a38 	lea 10202a38 <heap>,%a0
1020077c:	2d50 fff8      	movel %a0@,%fp@(-8)
10200780:	2039 1020 2a38 	movel 10202a38 <heap>,%d0
10200786:	d0ae fff4      	addl %fp@(-12),%d0
1020078a:	23c0 1020 2a38 	movel %d0,10202a38 <heap>
10200790:	42ae fffc      	clrl %fp@(-4)
10200794:	6012           	bras 102007a8 <proc_malloc+0x40>
10200796:	202e fff8      	movel %fp@(-8),%d0
1020079a:	222e fffc      	movel %fp@(-4),%d1
1020079e:	2040           	moveal %d0,%a0
102007a0:	d1c1           	addal %d1,%a0
102007a2:	4210           	clrb %a0@
102007a4:	52ae fffc      	addql #1,%fp@(-4)
102007a8:	202e fffc      	movel %fp@(-4),%d0
102007ac:	b0ae fff4      	cmpl %fp@(-12),%d0
102007b0:	65e4           	bcss 10200796 <proc_malloc+0x2e>
102007b2:	2039 1020 2a38 	movel 10202a38 <heap>,%d0
102007b8:	4e5e           	unlk %fp
102007ba:	4e75           	rts

102007bc <unblock_single_waiting_process>:
102007bc:	4e56 fff8      	linkw %fp,#-8
102007c0:	2f02           	movel %d2,%sp@-
102007c2:	42ae fffc      	clrl %fp@(-4)
102007c6:	605c           	bras 10200824 <unblock_single_waiting_process+0x68>
102007c8:	202e fffc      	movel %fp@(-4),%d0
102007cc:	e588           	lsll #2,%d0
102007ce:	41f9 1020 3a84 	lea 10203a84 <bmem_queue>,%a0
102007d4:	43f0 0800      	lea %a0@(00000000,%d0:l),%a1
102007d8:	2d51 fff8      	movel %a1@,%fp@(-8)
102007dc:	4aae fff8      	tstl %fp@(-8)
102007e0:	673e           	beqs 10200820 <unblock_single_waiting_process+0x64>
102007e2:	600c           	bras 102007f0 <unblock_single_waiting_process+0x34>
102007e4:	206e fff8      	moveal %fp@(-8),%a0
102007e8:	2028 0018      	movel %a0@(24),%d0
102007ec:	2d40 fff8      	movel %d0,%fp@(-8)
102007f0:	206e fff8      	moveal %fp@(-8),%a0
102007f4:	2028 0018      	movel %a0@(24),%d0
102007f8:	4a80           	tstl %d0
102007fa:	66e8           	bnes 102007e4 <unblock_single_waiting_process+0x28>
102007fc:	206e fff8      	moveal %fp@(-8),%a0
10200800:	2428 0004      	movel %a0@(4),%d2
10200804:	4878 0004      	pea 4 <__DYNAMIC+0x4>
10200808:	2f2e fff8      	movel %fp@(-8),%sp@-
1020080c:	4eb9 1020 12da 	jsr 102012da <remove_blocked_process>
10200812:	508f           	addql #8,%sp
10200814:	2f02           	movel %d2,%sp@-
10200816:	2f00           	movel %d0,%sp@-
10200818:	4eb9 1020 0f1c 	jsr 10200f1c <insert_process>
1020081e:	508f           	addql #8,%sp
10200820:	52ae fffc      	addql #1,%fp@(-4)
10200824:	7003           	moveq #3,%d0
10200826:	b0ae fffc      	cmpl %fp@(-4),%d0
1020082a:	6c9c           	bges 102007c8 <unblock_single_waiting_process+0xc>
1020082c:	242e fff4      	movel %fp@(-12),%d2
10200830:	4e5e           	unlk %fp
10200832:	4e75           	rts

10200834 <request_memory_block>:
10200834:	4e56 fff8      	linkw %fp,#-8
10200838:	2f02           	movel %d2,%sp@-
1020083a:	42ae fffc      	clrl %fp@(-4)
1020083e:	6046           	bras 10200886 <request_memory_block+0x52>
10200840:	202e fffc      	movel %fp@(-4),%d0
10200844:	e788           	lsll #3,%d0
10200846:	41f9 1020 3d36 	lea 10203d36 <memoryBlocks>,%a0
1020084c:	2030 0800      	movel %a0@(00000000,%d0:l),%d0
10200850:	7201           	moveq #1,%d1
10200852:	b280           	cmpl %d0,%d1
10200854:	672c           	beqs 10200882 <request_memory_block+0x4e>
10200856:	202e fffc      	movel %fp@(-4),%d0
1020085a:	e788           	lsll #3,%d0
1020085c:	41f9 1020 3d36 	lea 10203d36 <memoryBlocks>,%a0
10200862:	7201           	moveq #1,%d1
10200864:	2181 0800      	movel %d1,%a0@(00000000,%d0:l)
10200868:	202e fffc      	movel %fp@(-4),%d0
1020086c:	d080           	addl %d0,%d0
1020086e:	5280           	addql #1,%d0
10200870:	e588           	lsll #2,%d0
10200872:	41f9 1020 3d36 	lea 10203d36 <memoryBlocks>,%a0
10200878:	2070 0800      	moveal %a0@(00000000,%d0:l),%a0
1020087c:	2d48 fff8      	movel %a0,%fp@(-8)
10200880:	6054           	bras 102008d6 <request_memory_block+0xa2>
10200882:	52ae fffc      	addql #1,%fp@(-4)
10200886:	701f           	moveq #31,%d0
10200888:	b0ae fffc      	cmpl %fp@(-4),%d0
1020088c:	6cb2           	bges 10200840 <request_memory_block+0xc>
1020088e:	4878 0009      	pea 9 <__DYNAMIC+0x9>
10200892:	4eb9 1020 02d4 	jsr 102002d4 <exception>
10200898:	588f           	addql #4,%sp
1020089a:	2079 1020 3aac 	moveal 10203aac <running>,%a0
102008a0:	2428 0004      	movel %a0@(4),%d2
102008a4:	2039 1020 3aac 	movel 10203aac <running>,%d0
102008aa:	2f00           	movel %d0,%sp@-
102008ac:	4eb9 1020 10b0 	jsr 102010b0 <remove_process>
102008b2:	588f           	addql #4,%sp
102008b4:	4878 0004      	pea 4 <__DYNAMIC+0x4>
102008b8:	2f02           	movel %d2,%sp@-
102008ba:	2f00           	movel %d0,%sp@-
102008bc:	4eb9 1020 117e 	jsr 1020117e <insert_blocked_process>
102008c2:	dffc 0000 000c 	addal #12,%sp
102008c8:	4eb9 1020 0eb4 	jsr 10200eb4 <release_processor>
102008ce:	4eba ff64      	jsr %pc@(10200834 <request_memory_block>)
102008d2:	2d40 fff8      	movel %d0,%fp@(-8)
102008d6:	202e fff8      	movel %fp@(-8),%d0
102008da:	242e fff4      	movel %fp@(-12),%d2
102008de:	4e5e           	unlk %fp
102008e0:	4e75           	rts

102008e2 <release_memory_block>:
102008e2:	4e56 fff8      	linkw %fp,#-8
102008e6:	42ae fffc      	clrl %fp@(-4)
102008ea:	604e           	bras 1020093a <release_memory_block+0x58>
102008ec:	202e fffc      	movel %fp@(-4),%d0
102008f0:	d080           	addl %d0,%d0
102008f2:	5280           	addql #1,%d0
102008f4:	e588           	lsll #2,%d0
102008f6:	41f9 1020 3d36 	lea 10203d36 <memoryBlocks>,%a0
102008fc:	2030 0800      	movel %a0@(00000000,%d0:l),%d0
10200900:	b0ae 0008      	cmpl %fp@(8),%d0
10200904:	6630           	bnes 10200936 <release_memory_block+0x54>
10200906:	202e fffc      	movel %fp@(-4),%d0
1020090a:	e788           	lsll #3,%d0
1020090c:	41f9 1020 3d36 	lea 10203d36 <memoryBlocks>,%a0
10200912:	2030 0800      	movel %a0@(00000000,%d0:l),%d0
10200916:	7201           	moveq #1,%d1
10200918:	b280           	cmpl %d0,%d1
1020091a:	661a           	bnes 10200936 <release_memory_block+0x54>
1020091c:	202e fffc      	movel %fp@(-4),%d0
10200920:	e788           	lsll #3,%d0
10200922:	41f9 1020 3d36 	lea 10203d36 <memoryBlocks>,%a0
10200928:	42b0 0800      	clrl %a0@(00000000,%d0:l)
1020092c:	4eba fe8e      	jsr %pc@(102007bc <unblock_single_waiting_process>)
10200930:	42ae fff8      	clrl %fp@(-8)
10200934:	601e           	bras 10200954 <release_memory_block+0x72>
10200936:	52ae fffc      	addql #1,%fp@(-4)
1020093a:	701f           	moveq #31,%d0
1020093c:	b0ae fffc      	cmpl %fp@(-4),%d0
10200940:	6caa           	bges 102008ec <release_memory_block+0xa>
10200942:	4878 000d      	pea d <__DYNAMIC+0xd>
10200946:	4eb9 1020 02d4 	jsr 102002d4 <exception>
1020094c:	588f           	addql #4,%sp
1020094e:	72ff           	moveq #-1,%d1
10200950:	2d41 fff8      	movel %d1,%fp@(-8)
10200954:	202e fff8      	movel %fp@(-8),%d0
10200958:	4e5e           	unlk %fp
1020095a:	4e75           	rts

1020095c <send_message>:
1020095c:	4e56 fff4      	linkw %fp,#-12
10200960:	2f02           	movel %d2,%sp@-
10200962:	4aae 0008      	tstl %fp@(8)
10200966:	6e1a           	bgts 10200982 <send_message+0x26>
10200968:	7006           	moveq #6,%d0
1020096a:	b0ae 0008      	cmpl %fp@(8),%d0
1020096e:	6c12           	bges 10200982 <send_message+0x26>
10200970:	7207           	moveq #7,%d1
10200972:	b2ae 0008      	cmpl %fp@(8),%d1
10200976:	670a           	beqs 10200982 <send_message+0x26>
10200978:	7009           	moveq #9,%d0
1020097a:	b0ae 0008      	cmpl %fp@(8),%d0
1020097e:	6600 00fa      	bnew 10200a7a <send_message+0x11e>
10200982:	42ae fffc      	clrl %fp@(-4)
10200986:	6004           	bras 1020098c <send_message+0x30>
10200988:	52ae fffc      	addql #1,%fp@(-4)
1020098c:	202e fffc      	movel %fp@(-4),%d0
10200990:	e588           	lsll #2,%d0
10200992:	2200           	movel %d0,%d1
10200994:	e589           	lsll #2,%d1
10200996:	d081           	addl %d1,%d0
10200998:	41f9 1020 3ab0 	lea 10203ab0 <mailbox>,%a0
1020099e:	2030 0800      	movel %a0@(00000000,%d0:l),%d0
102009a2:	72ff           	moveq #-1,%d1
102009a4:	b280           	cmpl %d0,%d1
102009a6:	66e0           	bnes 10200988 <send_message+0x2c>
102009a8:	701f           	moveq #31,%d0
102009aa:	b0ae fffc      	cmpl %fp@(-4),%d0
102009ae:	6c16           	bges 102009c6 <send_message+0x6a>
102009b0:	4878 000a      	pea a <__DYNAMIC+0xa>
102009b4:	4eb9 1020 02d4 	jsr 102002d4 <exception>
102009ba:	588f           	addql #4,%sp
102009bc:	72ff           	moveq #-1,%d1
102009be:	2d41 fff4      	movel %d1,%fp@(-12)
102009c2:	6000 00d2      	braw 10200a96 <send_message+0x13a>
102009c6:	222e fffc      	movel %fp@(-4),%d1
102009ca:	2079 1020 3aac 	moveal 10203aac <running>,%a0
102009d0:	2010           	movel %a0@,%d0
102009d2:	2240           	moveal %d0,%a1
102009d4:	2001           	movel %d1,%d0
102009d6:	e588           	lsll #2,%d0
102009d8:	2200           	movel %d0,%d1
102009da:	e589           	lsll #2,%d1
102009dc:	d081           	addl %d1,%d0
102009de:	41f9 1020 3ab0 	lea 10203ab0 <mailbox>,%a0
102009e4:	2189 0800      	movel %a1,%a0@(00000000,%d0:l)
102009e8:	222e fffc      	movel %fp@(-4),%d1
102009ec:	2001           	movel %d1,%d0
102009ee:	e588           	lsll #2,%d0
102009f0:	d081           	addl %d1,%d0
102009f2:	5280           	addql #1,%d0
102009f4:	e588           	lsll #2,%d0
102009f6:	41f9 1020 3ab0 	lea 10203ab0 <mailbox>,%a0
102009fc:	43ee 0008      	lea %fp@(8),%a1
10200a00:	2191 0800      	movel %a1@,%a0@(00000000,%d0:l)
10200a04:	202e fffc      	movel %fp@(-4),%d0
10200a08:	226e 000c      	moveal %fp@(12),%a1
10200a0c:	e588           	lsll #2,%d0
10200a0e:	2200           	movel %d0,%d1
10200a10:	e589           	lsll #2,%d1
10200a12:	d081           	addl %d1,%d0
10200a14:	41f9 1020 3ac0 	lea 10203ac0 <mailbox+0x10>,%a0
10200a1a:	2189 0800      	movel %a1,%a0@(00000000,%d0:l)
10200a1e:	2039 1020 3e5a 	movel 10203e5a <red_lever>,%d0
10200a24:	5280           	addql #1,%d0
10200a26:	23c0 1020 3e5a 	movel %d0,10203e5a <red_lever>
10200a2c:	2039 1020 3e5a 	movel 10203e5a <red_lever>,%d0
10200a32:	4a80           	tstl %d0
10200a34:	6f3a           	bles 10200a70 <send_message+0x114>
10200a36:	2f2e 0008      	movel %fp@(8),%sp@-
10200a3a:	4eb9 1020 1640 	jsr 10201640 <find_blocked_proc_by_id>
10200a40:	588f           	addql #4,%sp
10200a42:	2d40 fff8      	movel %d0,%fp@(-8)
10200a46:	4aae fff8      	tstl %fp@(-8)
10200a4a:	6724           	beqs 10200a70 <send_message+0x114>
10200a4c:	206e fff8      	moveal %fp@(-8),%a0
10200a50:	2428 0004      	movel %a0@(4),%d2
10200a54:	4878 0003      	pea 3 <__DYNAMIC+0x3>
10200a58:	2f2e fff8      	movel %fp@(-8),%sp@-
10200a5c:	4eb9 1020 12da 	jsr 102012da <remove_blocked_process>
10200a62:	508f           	addql #8,%sp
10200a64:	2f02           	movel %d2,%sp@-
10200a66:	2f00           	movel %d0,%sp@-
10200a68:	4eb9 1020 0f1c 	jsr 10200f1c <insert_process>
10200a6e:	508f           	addql #8,%sp
10200a70:	202e fffc      	movel %fp@(-4),%d0
10200a74:	2d40 fff4      	movel %d0,%fp@(-12)
10200a78:	601c           	bras 10200a96 <send_message+0x13a>
10200a7a:	4878 0002      	pea 2 <__DYNAMIC+0x2>
10200a7e:	4eb9 1020 02d4 	jsr 102002d4 <exception>
10200a84:	588f           	addql #4,%sp
10200a86:	42a7           	clrl %sp@-
10200a88:	4eb9 1020 02d4 	jsr 102002d4 <exception>
10200a8e:	588f           	addql #4,%sp
10200a90:	72ff           	moveq #-1,%d1
10200a92:	2d41 fff4      	movel %d1,%fp@(-12)
10200a96:	202e fff4      	movel %fp@(-12),%d0
10200a9a:	242e fff0      	movel %fp@(-16),%d2
10200a9e:	4e5e           	unlk %fp
10200aa0:	4e75           	rts

10200aa2 <receive_message>:
10200aa2:	4e56 fff8      	linkw %fp,#-8
10200aa6:	2f02           	movel %d2,%sp@-
10200aa8:	42ae fffc      	clrl %fp@(-4)
10200aac:	600c           	bras 10200aba <receive_message+0x18>
10200aae:	701f           	moveq #31,%d0
10200ab0:	b0ae fffc      	cmpl %fp@(-4),%d0
10200ab4:	6d2a           	blts 10200ae0 <receive_message+0x3e>
10200ab6:	52ae fffc      	addql #1,%fp@(-4)
10200aba:	222e fffc      	movel %fp@(-4),%d1
10200abe:	2001           	movel %d1,%d0
10200ac0:	e588           	lsll #2,%d0
10200ac2:	d081           	addl %d1,%d0
10200ac4:	5280           	addql #1,%d0
10200ac6:	e588           	lsll #2,%d0
10200ac8:	41f9 1020 3ab0 	lea 10203ab0 <mailbox>,%a0
10200ace:	2030 0800      	movel %a0@(00000000,%d0:l),%d0
10200ad2:	2200           	movel %d0,%d1
10200ad4:	2079 1020 3aac 	moveal 10203aac <running>,%a0
10200ada:	2010           	movel %a0@,%d0
10200adc:	b081           	cmpl %d1,%d0
10200ade:	66ce           	bnes 10200aae <receive_message+0xc>
10200ae0:	721f           	moveq #31,%d1
10200ae2:	b2ae fffc      	cmpl %fp@(-4),%d1
10200ae6:	6d00 0082      	bltw 10200b6a <receive_message+0xc8>
10200aea:	206e 0008      	moveal %fp@(8),%a0
10200aee:	2250           	moveal %a0@,%a1
10200af0:	202e fffc      	movel %fp@(-4),%d0
10200af4:	e588           	lsll #2,%d0
10200af6:	2200           	movel %d0,%d1
10200af8:	e589           	lsll #2,%d1
10200afa:	d081           	addl %d1,%d0
10200afc:	41f9 1020 3ab0 	lea 10203ab0 <mailbox>,%a0
10200b02:	2030 0800      	movel %a0@(00000000,%d0:l),%d0
10200b06:	d089           	addl %a1,%d0
10200b08:	206e 0008      	moveal %fp@(8),%a0
10200b0c:	2080           	movel %d0,%a0@
10200b0e:	202e fffc      	movel %fp@(-4),%d0
10200b12:	e588           	lsll #2,%d0
10200b14:	2200           	movel %d0,%d1
10200b16:	e589           	lsll #2,%d1
10200b18:	d081           	addl %d1,%d0
10200b1a:	41f9 1020 3ab0 	lea 10203ab0 <mailbox>,%a0
10200b20:	72ff           	moveq #-1,%d1
10200b22:	2181 0800      	movel %d1,%a0@(00000000,%d0:l)
10200b26:	222e fffc      	movel %fp@(-4),%d1
10200b2a:	2001           	movel %d1,%d0
10200b2c:	e588           	lsll #2,%d0
10200b2e:	d081           	addl %d1,%d0
10200b30:	5280           	addql #1,%d0
10200b32:	e588           	lsll #2,%d0
10200b34:	41f9 1020 3ab0 	lea 10203ab0 <mailbox>,%a0
10200b3a:	72ff           	moveq #-1,%d1
10200b3c:	2181 0800      	movel %d1,%a0@(00000000,%d0:l)
10200b40:	2039 1020 3e5a 	movel 10203e5a <red_lever>,%d0
10200b46:	5380           	subql #1,%d0
10200b48:	23c0 1020 3e5a 	movel %d0,10203e5a <red_lever>
10200b4e:	202e fffc      	movel %fp@(-4),%d0
10200b52:	e588           	lsll #2,%d0
10200b54:	2200           	movel %d0,%d1
10200b56:	e589           	lsll #2,%d1
10200b58:	d081           	addl %d1,%d0
10200b5a:	41f9 1020 3ac0 	lea 10203ac0 <mailbox+0x10>,%a0
10200b60:	2070 0800      	moveal %a0@(00000000,%d0:l),%a0
10200b64:	2d48 fff8      	movel %a0,%fp@(-8)
10200b68:	6040           	bras 10200baa <receive_message+0x108>
10200b6a:	2079 1020 3aac 	moveal 10203aac <running>,%a0
10200b70:	2428 0004      	movel %a0@(4),%d2
10200b74:	2039 1020 3aac 	movel 10203aac <running>,%d0
10200b7a:	2f00           	movel %d0,%sp@-
10200b7c:	4eb9 1020 10b0 	jsr 102010b0 <remove_process>
10200b82:	588f           	addql #4,%sp
10200b84:	4878 0003      	pea 3 <__DYNAMIC+0x3>
10200b88:	2f02           	movel %d2,%sp@-
10200b8a:	2f00           	movel %d0,%sp@-
10200b8c:	4eb9 1020 117e 	jsr 1020117e <insert_blocked_process>
10200b92:	dffc 0000 000c 	addal #12,%sp
10200b98:	4eb9 1020 0eb4 	jsr 10200eb4 <release_processor>
10200b9e:	42a7           	clrl %sp@-
10200ba0:	4eba ff00      	jsr %pc@(10200aa2 <receive_message>)
10200ba4:	588f           	addql #4,%sp
10200ba6:	2d40 fff8      	movel %d0,%fp@(-8)
10200baa:	202e fff8      	movel %fp@(-8),%d0
10200bae:	242e fff4      	movel %fp@(-12),%d2
10200bb2:	4e5e           	unlk %fp
10200bb4:	4e75           	rts

10200bb6 <delayed_send>:
10200bb6:	4e56 0000      	linkw %fp,#0
10200bba:	4280           	clrl %d0
10200bbc:	4e5e           	unlk %fp
10200bbe:	4e75           	rts

10200bc0 <unblock_waiting_procs>:
10200bc0:	4e56 fff4      	linkw %fp,#-12
10200bc4:	2f02           	movel %d2,%sp@-
10200bc6:	42ae fffc      	clrl %fp@(-4)
10200bca:	6000 00a6      	braw 10200c72 <unblock_waiting_procs+0xb2>
10200bce:	42ae fff4      	clrl %fp@(-12)
10200bd2:	202e fffc      	movel %fp@(-4),%d0
10200bd6:	e588           	lsll #2,%d0
10200bd8:	41f9 1020 3a98 	lea 10203a98 <bmsg_queue>,%a0
10200bde:	43f0 0800      	lea %a0@(00000000,%d0:l),%a1
10200be2:	2d51 fff8      	movel %a1@,%fp@(-8)
10200be6:	607e           	bras 10200c66 <unblock_waiting_procs+0xa6>
10200be8:	42ae fff4      	clrl %fp@(-12)
10200bec:	600c           	bras 10200bfa <unblock_waiting_procs+0x3a>
10200bee:	701f           	moveq #31,%d0
10200bf0:	b0ae fff4      	cmpl %fp@(-12),%d0
10200bf4:	6d28           	blts 10200c1e <unblock_waiting_procs+0x5e>
10200bf6:	52ae fff4      	addql #1,%fp@(-12)
10200bfa:	222e fff4      	movel %fp@(-12),%d1
10200bfe:	2001           	movel %d1,%d0
10200c00:	e588           	lsll #2,%d0
10200c02:	d081           	addl %d1,%d0
10200c04:	5280           	addql #1,%d0
10200c06:	e588           	lsll #2,%d0
10200c08:	41f9 1020 3ab0 	lea 10203ab0 <mailbox>,%a0
10200c0e:	2030 0800      	movel %a0@(00000000,%d0:l),%d0
10200c12:	2200           	movel %d0,%d1
10200c14:	206e fff8      	moveal %fp@(-8),%a0
10200c18:	2010           	movel %a0@,%d0
10200c1a:	b081           	cmpl %d1,%d0
10200c1c:	66d0           	bnes 10200bee <unblock_waiting_procs+0x2e>
10200c1e:	701f           	moveq #31,%d0
10200c20:	b0ae fff4      	cmpl %fp@(-12),%d0
10200c24:	6d34           	blts 10200c5a <unblock_waiting_procs+0x9a>
10200c26:	206e fff8      	moveal %fp@(-8),%a0
10200c2a:	2428 0004      	movel %a0@(4),%d2
10200c2e:	4878 0003      	pea 3 <__DYNAMIC+0x3>
10200c32:	2f2e fff8      	movel %fp@(-8),%sp@-
10200c36:	4eb9 1020 12da 	jsr 102012da <remove_blocked_process>
10200c3c:	508f           	addql #8,%sp
10200c3e:	2f02           	movel %d2,%sp@-
10200c40:	2f00           	movel %d0,%sp@-
10200c42:	4eb9 1020 0f1c 	jsr 10200f1c <insert_process>
10200c48:	508f           	addql #8,%sp
10200c4a:	2039 1020 3e5a 	movel 10203e5a <red_lever>,%d0
10200c50:	5380           	subql #1,%d0
10200c52:	23c0 1020 3e5a 	movel %d0,10203e5a <red_lever>
10200c58:	600c           	bras 10200c66 <unblock_waiting_procs+0xa6>
10200c5a:	206e fff8      	moveal %fp@(-8),%a0
10200c5e:	2028 0018      	movel %a0@(24),%d0
10200c62:	2d40 fff8      	movel %d0,%fp@(-8)
10200c66:	4aae fff8      	tstl %fp@(-8)
10200c6a:	6600 ff7c      	bnew 10200be8 <unblock_waiting_procs+0x28>
10200c6e:	52ae fffc      	addql #1,%fp@(-4)
10200c72:	7003           	moveq #3,%d0
10200c74:	b0ae fffc      	cmpl %fp@(-4),%d0
10200c78:	6c00 ff54      	bgew 10200bce <unblock_waiting_procs+0xe>
10200c7c:	242e fff0      	movel %fp@(-16),%d2
10200c80:	4e5e           	unlk %fp
10200c82:	4e75           	rts

10200c84 <message_type>:
10200c84:	4e56 0000      	linkw %fp,#0
10200c88:	202e 0008      	movel %fp@(8),%d0
10200c8c:	e588           	lsll #2,%d0
10200c8e:	2200           	movel %d0,%d1
10200c90:	e589           	lsll #2,%d1
10200c92:	d081           	addl %d1,%d0
10200c94:	41f9 1020 3ab8 	lea 10203ab8 <mailbox+0x8>,%a0
10200c9a:	2030 0800      	movel %a0@(00000000,%d0:l),%d0
10200c9e:	4e5e           	unlk %fp
10200ca0:	4e75           	rts

10200ca2 <set_message_type>:
10200ca2:	4e56 0000      	linkw %fp,#0
10200ca6:	202e 0008      	movel %fp@(8),%d0
10200caa:	e588           	lsll #2,%d0
10200cac:	2200           	movel %d0,%d1
10200cae:	e589           	lsll #2,%d1
10200cb0:	d081           	addl %d1,%d0
10200cb2:	41f9 1020 3ab8 	lea 10203ab8 <mailbox+0x8>,%a0
10200cb8:	43ee 000c      	lea %fp@(12),%a1
10200cbc:	2191 0800      	movel %a1@,%a0@(00000000,%d0:l)
10200cc0:	4e5e           	unlk %fp
10200cc2:	4e75           	rts

10200cc4 <write_message>:
10200cc4:	4e56 fffc      	linkw %fp,#-4
10200cc8:	42ae fffc      	clrl %fp@(-4)
10200ccc:	6022           	bras 10200cf0 <write_message+0x2c>
10200cce:	202e fffc      	movel %fp@(-4),%d0
10200cd2:	0680 0000 0040 	addil #64,%d0
10200cd8:	d0ae 0008      	addl %fp@(8),%d0
10200cdc:	2240           	moveal %d0,%a1
10200cde:	202e fffc      	movel %fp@(-4),%d0
10200ce2:	206e 000c      	moveal %fp@(12),%a0
10200ce6:	d1c0           	addal %d0,%a0
10200ce8:	1010           	moveb %a0@,%d0
10200cea:	1280           	moveb %d0,%a1@
10200cec:	52ae fffc      	addql #1,%fp@(-4)
10200cf0:	202e fffc      	movel %fp@(-4),%d0
10200cf4:	206e 000c      	moveal %fp@(12),%a0
10200cf8:	d1c0           	addal %d0,%a0
10200cfa:	1010           	moveb %a0@,%d0
10200cfc:	4a00           	tstb %d0
10200cfe:	66ce           	bnes 10200cce <write_message+0xa>
10200d00:	202e fffc      	movel %fp@(-4),%d0
10200d04:	206e 000c      	moveal %fp@(12),%a0
10200d08:	d1c0           	addal %d0,%a0
10200d0a:	1010           	moveb %a0@,%d0
10200d0c:	4a00           	tstb %d0
10200d0e:	66be           	bnes 10200cce <write_message+0xa>
10200d10:	202e 0008      	movel %fp@(8),%d0
10200d14:	4e5e           	unlk %fp
10200d16:	4e75           	rts

10200d18 <read_message>:
10200d18:	4e56 fffc      	linkw %fp,#-4
10200d1c:	202e 0008      	movel %fp@(8),%d0
10200d20:	2200           	movel %d0,%d1
10200d22:	0681 0000 0040 	addil #64,%d1
10200d28:	2d41 fffc      	movel %d1,%fp@(-4)
10200d2c:	202e fffc      	movel %fp@(-4),%d0
10200d30:	4e5e           	unlk %fp
10200d32:	4e75           	rts

10200d34 <set_process_priority>:
10200d34:	4e56 fff4      	linkw %fp,#-12
10200d38:	2f02           	movel %d2,%sp@-
10200d3a:	41f9 1020 3e66 	lea 10203e66 <init_blocks_head>,%a0
10200d40:	2d50 fff8      	movel %a0@,%fp@(-8)
10200d44:	4aae 000c      	tstl %fp@(12)
10200d48:	6d08           	blts 10200d52 <set_process_priority+0x1e>
10200d4a:	7003           	moveq #3,%d0
10200d4c:	b0ae 000c      	cmpl %fp@(12),%d0
10200d50:	6c10           	bges 10200d62 <set_process_priority+0x2e>
10200d52:	4878 0001      	pea 1 <__DYNAMIC+0x1>
10200d56:	4eb9 1020 02d4 	jsr 102002d4 <exception>
10200d5c:	588f           	addql #4,%sp
10200d5e:	6000 00cc      	braw 10200e2c <set_process_priority+0xf8>
10200d62:	4aae 0008      	tstl %fp@(8)
10200d66:	6f0a           	bles 10200d72 <set_process_priority+0x3e>
10200d68:	7206           	moveq #6,%d1
10200d6a:	b2ae 0008      	cmpl %fp@(8),%d1
10200d6e:	6c00 00b4      	bgew 10200e24 <set_process_priority+0xf0>
10200d72:	4878 0003      	pea 3 <__DYNAMIC+0x3>
10200d76:	4eb9 1020 02d4 	jsr 102002d4 <exception>
10200d7c:	588f           	addql #4,%sp
10200d7e:	6000 00ac      	braw 10200e2c <set_process_priority+0xf8>
10200d82:	206e fff8      	moveal %fp@(-8),%a0
10200d86:	2d68 0014 fffc 	movel %a0@(20),%fp@(-4)
10200d8c:	206e fff8      	moveal %fp@(-8),%a0
10200d90:	2210           	movel %a0@,%d1
10200d92:	202e 0008      	movel %fp@(8),%d0
10200d96:	b081           	cmpl %d1,%d0
10200d98:	6668           	bnes 10200e02 <set_process_priority+0xce>
10200d9a:	206e fffc      	moveal %fp@(-4),%a0
10200d9e:	2228 0004      	movel %a0@(4),%d1
10200da2:	202e 000c      	movel %fp@(12),%d0
10200da6:	b081           	cmpl %d1,%d0
10200da8:	660e           	bnes 10200db8 <set_process_priority+0x84>
10200daa:	4878 000e      	pea e <__DYNAMIC+0xe>
10200dae:	4eb9 1020 02d4 	jsr 102002d4 <exception>
10200db4:	588f           	addql #4,%sp
10200db6:	604a           	bras 10200e02 <set_process_priority+0xce>
10200db8:	206e fffc      	moveal %fp@(-4),%a0
10200dbc:	2028 0008      	movel %a0@(8),%d0
10200dc0:	7205           	moveq #5,%d1
10200dc2:	b280           	cmpl %d0,%d1
10200dc4:	660e           	bnes 10200dd4 <set_process_priority+0xa0>
10200dc6:	4878 000f      	pea f <__DYNAMIC+0xf>
10200dca:	4eb9 1020 02d4 	jsr 102002d4 <exception>
10200dd0:	588f           	addql #4,%sp
10200dd2:	602e           	bras 10200e02 <set_process_priority+0xce>
10200dd4:	242e 000c      	movel %fp@(12),%d2
10200dd8:	2f2e fffc      	movel %fp@(-4),%sp@-
10200ddc:	4eb9 1020 10b0 	jsr 102010b0 <remove_process>
10200de2:	588f           	addql #4,%sp
10200de4:	2f02           	movel %d2,%sp@-
10200de6:	2f00           	movel %d0,%sp@-
10200de8:	4eb9 1020 0f1c 	jsr 10200f1c <insert_process>
10200dee:	508f           	addql #8,%sp
10200df0:	202e 000c      	movel %fp@(12),%d0
10200df4:	206e fffc      	moveal %fp@(-4),%a0
10200df8:	2140 0004      	movel %d0,%a0@(4)
10200dfc:	42ae fff4      	clrl %fp@(-12)
10200e00:	6030           	bras 10200e32 <set_process_priority+0xfe>
10200e02:	206e fff8      	moveal %fp@(-8),%a0
10200e06:	2028 0010      	movel %a0@(16),%d0
10200e0a:	2d40 fff8      	movel %d0,%fp@(-8)
10200e0e:	2039 1020 3a94 	movel 10203a94 <prio>,%d0
10200e14:	b0ae 000c      	cmpl %fp@(12),%d0
10200e18:	6f0a           	bles 10200e24 <set_process_priority+0xf0>
10200e1a:	41ee 000c      	lea %fp@(12),%a0
10200e1e:	23d0 1020 3a94 	movel %a0@,10203a94 <prio>
10200e24:	4aae fff8      	tstl %fp@(-8)
10200e28:	6600 ff58      	bnew 10200d82 <set_process_priority+0x4e>
10200e2c:	70ff           	moveq #-1,%d0
10200e2e:	2d40 fff4      	movel %d0,%fp@(-12)
10200e32:	202e fff4      	movel %fp@(-12),%d0
10200e36:	242e fff0      	movel %fp@(-16),%d2
10200e3a:	4e5e           	unlk %fp
10200e3c:	4e75           	rts

10200e3e <get_process_priority>:
10200e3e:	4e56 fff0      	linkw %fp,#-16
10200e42:	41f9 1020 3e66 	lea 10203e66 <init_blocks_head>,%a0
10200e48:	2d50 fff8      	movel %a0@,%fp@(-8)
10200e4c:	4aae 0008      	tstl %fp@(8)
10200e50:	6642           	bnes 10200e94 <get_process_priority+0x56>
10200e52:	7004           	moveq #4,%d0
10200e54:	2d40 fff0      	movel %d0,%fp@(-16)
10200e58:	6052           	bras 10200eac <get_process_priority+0x6e>
10200e5a:	206e fff8      	moveal %fp@(-8),%a0
10200e5e:	2210           	movel %a0@,%d1
10200e60:	202e 0008      	movel %fp@(8),%d0
10200e64:	b081           	cmpl %d1,%d0
10200e66:	6620           	bnes 10200e88 <get_process_priority+0x4a>
10200e68:	206e fff8      	moveal %fp@(-8),%a0
10200e6c:	2d68 0014 fffc 	movel %a0@(20),%fp@(-4)
10200e72:	206e fffc      	moveal %fp@(-4),%a0
10200e76:	2028 0004      	movel %a0@(4),%d0
10200e7a:	2d40 fff4      	movel %d0,%fp@(-12)
10200e7e:	206e fff4      	moveal %fp@(-12),%a0
10200e82:	2d48 fff0      	movel %a0,%fp@(-16)
10200e86:	6024           	bras 10200eac <get_process_priority+0x6e>
10200e88:	206e fff8      	moveal %fp@(-8),%a0
10200e8c:	2028 0010      	movel %a0@(16),%d0
10200e90:	2d40 fff8      	movel %d0,%fp@(-8)
10200e94:	4aae fff8      	tstl %fp@(-8)
10200e98:	66c0           	bnes 10200e5a <get_process_priority+0x1c>
10200e9a:	4878 000c      	pea c <__DYNAMIC+0xc>
10200e9e:	4eb9 1020 02d4 	jsr 102002d4 <exception>
10200ea4:	588f           	addql #4,%sp
10200ea6:	70ff           	moveq #-1,%d0
10200ea8:	2d40 fff0      	movel %d0,%fp@(-16)
10200eac:	202e fff0      	movel %fp@(-16),%d0
10200eb0:	4e5e           	unlk %fp
10200eb2:	4e75           	rts

10200eb4 <release_processor>:
10200eb4:	4e56 0000      	linkw %fp,#0
10200eb8:	4e40           	trap #0
10200eba:	4280           	clrl %d0
10200ebc:	4e5e           	unlk %fp
10200ebe:	4e75           	rts

10200ec0 <process_bootstrap>:
10200ec0:	4e56 0000      	linkw %fp,#0
10200ec4:	206e 0008      	moveal %fp@(8),%a0
10200ec8:	2028 0014      	movel %a0@(20),%d0
10200ecc:	23c0 1020 3e3a 	movel %d0,10203e3a <proc_pointer>
10200ed2:	2079 1020 3e3a 	moveal 10203e3a <proc_pointer>,%a0
10200ed8:	4e90           	jsr %a0@
10200eda:	206e 0008      	moveal %fp@(8),%a0
10200ede:	7005           	moveq #5,%d0
10200ee0:	2140 0008      	movel %d0,%a0@(8)
10200ee4:	2f2e 0008      	movel %fp@(8),%sp@-
10200ee8:	4eba 01c6      	jsr %pc@(102010b0 <remove_process>)
10200eec:	588f           	addql #4,%sp
10200eee:	2039 1020 3e6a 	movel 10203e6a <total_procs>,%d0
10200ef4:	5380           	subql #1,%d0
10200ef6:	23c0 1020 3e6a 	movel %d0,10203e6a <total_procs>
10200efc:	2039 1020 3e6a 	movel 10203e6a <total_procs>,%d0
10200f02:	4a80           	tstl %d0
10200f04:	6f04           	bles 10200f0a <process_bootstrap+0x4a>
10200f06:	4eba ffac      	jsr %pc@(10200eb4 <release_processor>)
10200f0a:	4e5e           	unlk %fp
10200f0c:	4e75           	rts

10200f0e <clear_priority>:
10200f0e:	4e56 0000      	linkw %fp,#0
10200f12:	42b9 1020 3a94 	clrl 10203a94 <prio>
10200f18:	4e5e           	unlk %fp
10200f1a:	4e75           	rts

10200f1c <insert_process>:
10200f1c:	4e56 fff8      	linkw %fp,#-8
10200f20:	7003           	moveq #3,%d0
10200f22:	b0ae 000c      	cmpl %fp@(12),%d0
10200f26:	6416           	bccs 10200f3e <insert_process+0x22>
10200f28:	4879 1020 2983 	pea 10202983 <__DTOR_END__+0x4a3>
10200f2e:	4eb9 1020 01e0 	jsr 102001e0 <rtx_dbug_outs>
10200f34:	588f           	addql #4,%sp
10200f36:	70ff           	moveq #-1,%d0
10200f38:	2d40 fff8      	movel %d0,%fp@(-8)
10200f3c:	607e           	bras 10200fbc <insert_process+0xa0>
10200f3e:	206e 0008      	moveal %fp@(8),%a0
10200f42:	216e 000c 0004 	movel %fp@(12),%a0@(4)
10200f48:	202e 000c      	movel %fp@(12),%d0
10200f4c:	e588           	lsll #2,%d0
10200f4e:	41f9 1020 3e3e 	lea 10203e3e <ready_queue>,%a0
10200f54:	2030 0800      	movel %a0@(00000000,%d0:l),%d0
10200f58:	4a80           	tstl %d0
10200f5a:	6748           	beqs 10200fa4 <insert_process+0x88>
10200f5c:	202e 000c      	movel %fp@(12),%d0
10200f60:	e588           	lsll #2,%d0
10200f62:	41f9 1020 3e3e 	lea 10203e3e <ready_queue>,%a0
10200f68:	43f0 0800      	lea %a0@(00000000,%d0:l),%a1
10200f6c:	2d51 fffc      	movel %a1@,%fp@(-4)
10200f70:	600c           	bras 10200f7e <insert_process+0x62>
10200f72:	206e fffc      	moveal %fp@(-4),%a0
10200f76:	2028 0018      	movel %a0@(24),%d0
10200f7a:	2d40 fffc      	movel %d0,%fp@(-4)
10200f7e:	206e fffc      	moveal %fp@(-4),%a0
10200f82:	2028 0018      	movel %a0@(24),%d0
10200f86:	4a80           	tstl %d0
10200f88:	66e8           	bnes 10200f72 <insert_process+0x56>
10200f8a:	206e 0008      	moveal %fp@(8),%a0
10200f8e:	7001           	moveq #1,%d0
10200f90:	2140 0008      	movel %d0,%a0@(8)
10200f94:	206e fffc      	moveal %fp@(-4),%a0
10200f98:	216e 0008 0018 	movel %fp@(8),%a0@(24)
10200f9e:	42ae fff8      	clrl %fp@(-8)
10200fa2:	6018           	bras 10200fbc <insert_process+0xa0>
10200fa4:	202e 000c      	movel %fp@(12),%d0
10200fa8:	e588           	lsll #2,%d0
10200faa:	41f9 1020 3e3e 	lea 10203e3e <ready_queue>,%a0
10200fb0:	43ee 0008      	lea %fp@(8),%a1
10200fb4:	2191 0800      	movel %a1@,%a0@(00000000,%d0:l)
10200fb8:	42ae fff8      	clrl %fp@(-8)
10200fbc:	202e fff8      	movel %fp@(-8),%d0
10200fc0:	4e5e           	unlk %fp
10200fc2:	4e75           	rts

10200fc4 <insert_new_process>:
10200fc4:	4e56 fff8      	linkw %fp,#-8
10200fc8:	4878 001c      	pea 1c <__DYNAMIC+0x1c>
10200fcc:	4eb9 1020 0720 	jsr 10200720 <malloc>
10200fd2:	588f           	addql #4,%sp
10200fd4:	2d40 fffc      	movel %d0,%fp@(-4)
10200fd8:	206e 0008      	moveal %fp@(8),%a0
10200fdc:	2010           	movel %a0@,%d0
10200fde:	206e fffc      	moveal %fp@(-4),%a0
10200fe2:	2080           	movel %d0,%a0@
10200fe4:	206e 0008      	moveal %fp@(8),%a0
10200fe8:	2028 0004      	movel %a0@(4),%d0
10200fec:	206e fffc      	moveal %fp@(-4),%a0
10200ff0:	2140 0004      	movel %d0,%a0@(4)
10200ff4:	206e 0008      	moveal %fp@(8),%a0
10200ff8:	2028 000c      	movel %a0@(12),%d0
10200ffc:	206e fffc      	moveal %fp@(-4),%a0
10201000:	2140 0014      	movel %d0,%a0@(20)
10201004:	4eb9 1020 0768 	jsr 10200768 <proc_malloc>
1020100a:	206e fffc      	moveal %fp@(-4),%a0
1020100e:	2140 0010      	movel %d0,%a0@(16)
10201012:	206e fffc      	moveal %fp@(-4),%a0
10201016:	42a8 0018      	clrl %a0@(24)
1020101a:	206e fffc      	moveal %fp@(-4),%a0
1020101e:	42a8 0008      	clrl %a0@(8)
10201022:	206e fffc      	moveal %fp@(-4),%a0
10201026:	2028 0004      	movel %a0@(4),%d0
1020102a:	e588           	lsll #2,%d0
1020102c:	41f9 1020 3e3e 	lea 10203e3e <ready_queue>,%a0
10201032:	2030 0800      	movel %a0@(00000000,%d0:l),%d0
10201036:	4a80           	tstl %d0
10201038:	673e           	beqs 10201078 <insert_new_process+0xb4>
1020103a:	206e fffc      	moveal %fp@(-4),%a0
1020103e:	2028 0004      	movel %a0@(4),%d0
10201042:	e588           	lsll #2,%d0
10201044:	41f9 1020 3e3e 	lea 10203e3e <ready_queue>,%a0
1020104a:	43f0 0800      	lea %a0@(00000000,%d0:l),%a1
1020104e:	2d51 fff8      	movel %a1@,%fp@(-8)
10201052:	600c           	bras 10201060 <insert_new_process+0x9c>
10201054:	206e fff8      	moveal %fp@(-8),%a0
10201058:	2028 0018      	movel %a0@(24),%d0
1020105c:	2d40 fff8      	movel %d0,%fp@(-8)
10201060:	206e fff8      	moveal %fp@(-8),%a0
10201064:	2028 0018      	movel %a0@(24),%d0
10201068:	4a80           	tstl %d0
1020106a:	66e8           	bnes 10201054 <insert_new_process+0x90>
1020106c:	206e fff8      	moveal %fp@(-8),%a0
10201070:	216e fffc 0018 	movel %fp@(-4),%a0@(24)
10201076:	6030           	bras 102010a8 <insert_new_process+0xe4>
10201078:	206e fffc      	moveal %fp@(-4),%a0
1020107c:	2028 0004      	movel %a0@(4),%d0
10201080:	e588           	lsll #2,%d0
10201082:	41f9 1020 3e3e 	lea 10203e3e <ready_queue>,%a0
10201088:	2030 0800      	movel %a0@(00000000,%d0:l),%d0
1020108c:	4a80           	tstl %d0
1020108e:	6618           	bnes 102010a8 <insert_new_process+0xe4>
10201090:	206e fffc      	moveal %fp@(-4),%a0
10201094:	2028 0004      	movel %a0@(4),%d0
10201098:	e588           	lsll #2,%d0
1020109a:	41f9 1020 3e3e 	lea 10203e3e <ready_queue>,%a0
102010a0:	43ee fffc      	lea %fp@(-4),%a1
102010a4:	2191 0800      	movel %a1@,%a0@(00000000,%d0:l)
102010a8:	202e fffc      	movel %fp@(-4),%d0
102010ac:	4e5e           	unlk %fp
102010ae:	4e75           	rts

102010b0 <remove_process>:
102010b0:	4e56 fffc      	linkw %fp,#-4
102010b4:	2f02           	movel %d2,%sp@-
102010b6:	206e 0008      	moveal %fp@(8),%a0
102010ba:	2028 0004      	movel %a0@(4),%d0
102010be:	e588           	lsll #2,%d0
102010c0:	41f9 1020 3e3e 	lea 10203e3e <ready_queue>,%a0
102010c6:	2070 0800      	moveal %a0@(00000000,%d0:l),%a0
102010ca:	2210           	movel %a0@,%d1
102010cc:	206e 0008      	moveal %fp@(8),%a0
102010d0:	2010           	movel %a0@,%d0
102010d2:	b081           	cmpl %d1,%d0
102010d4:	6644           	bnes 1020111a <remove_process+0x6a>
102010d6:	206e 0008      	moveal %fp@(8),%a0
102010da:	2028 0018      	movel %a0@(24),%d0
102010de:	4a80           	tstl %d0
102010e0:	6722           	beqs 10201104 <remove_process+0x54>
102010e2:	206e 0008      	moveal %fp@(8),%a0
102010e6:	2428 0004      	movel %a0@(4),%d2
102010ea:	206e 0008      	moveal %fp@(8),%a0
102010ee:	2028 0018      	movel %a0@(24),%d0
102010f2:	2200           	movel %d0,%d1
102010f4:	2002           	movel %d2,%d0
102010f6:	e588           	lsll #2,%d0
102010f8:	41f9 1020 3e3e 	lea 10203e3e <ready_queue>,%a0
102010fe:	2181 0800      	movel %d1,%a0@(00000000,%d0:l)
10201102:	6068           	bras 1020116c <remove_process+0xbc>
10201104:	206e 0008      	moveal %fp@(8),%a0
10201108:	2028 0004      	movel %a0@(4),%d0
1020110c:	e588           	lsll #2,%d0
1020110e:	41f9 1020 3e3e 	lea 10203e3e <ready_queue>,%a0
10201114:	42b0 0800      	clrl %a0@(00000000,%d0:l)
10201118:	6052           	bras 1020116c <remove_process+0xbc>
1020111a:	206e 0008      	moveal %fp@(8),%a0
1020111e:	2028 0004      	movel %a0@(4),%d0
10201122:	e588           	lsll #2,%d0
10201124:	41f9 1020 3e3e 	lea 10203e3e <ready_queue>,%a0
1020112a:	43f0 0800      	lea %a0@(00000000,%d0:l),%a1
1020112e:	2d51 fffc      	movel %a1@,%fp@(-4)
10201132:	602c           	bras 10201160 <remove_process+0xb0>
10201134:	206e fffc      	moveal %fp@(-4),%a0
10201138:	2028 0018      	movel %a0@(24),%d0
1020113c:	b0ae 0008      	cmpl %fp@(8),%d0
10201140:	6612           	bnes 10201154 <remove_process+0xa4>
10201142:	206e 0008      	moveal %fp@(8),%a0
10201146:	2028 0018      	movel %a0@(24),%d0
1020114a:	206e fffc      	moveal %fp@(-4),%a0
1020114e:	2140 0018      	movel %d0,%a0@(24)
10201152:	6018           	bras 1020116c <remove_process+0xbc>
10201154:	206e fffc      	moveal %fp@(-4),%a0
10201158:	2028 0018      	movel %a0@(24),%d0
1020115c:	2d40 fffc      	movel %d0,%fp@(-4)
10201160:	206e fffc      	moveal %fp@(-4),%a0
10201164:	2028 0018      	movel %a0@(24),%d0
10201168:	4a80           	tstl %d0
1020116a:	66c8           	bnes 10201134 <remove_process+0x84>
1020116c:	206e 0008      	moveal %fp@(8),%a0
10201170:	42a8 0018      	clrl %a0@(24)
10201174:	202e 0008      	movel %fp@(8),%d0
10201178:	241f           	movel %sp@+,%d2
1020117a:	4e5e           	unlk %fp
1020117c:	4e75           	rts

1020117e <insert_blocked_process>:
1020117e:	4e56 fff8      	linkw %fp,#-8
10201182:	7003           	moveq #3,%d0
10201184:	b0ae 000c      	cmpl %fp@(12),%d0
10201188:	640a           	bccs 10201194 <insert_blocked_process+0x16>
1020118a:	70ff           	moveq #-1,%d0
1020118c:	2d40 fff8      	movel %d0,%fp@(-8)
10201190:	6000 0140      	braw 102012d2 <insert_blocked_process+0x154>
10201194:	206e 0008      	moveal %fp@(8),%a0
10201198:	216e 000c 0004 	movel %fp@(12),%a0@(4)
1020119e:	7003           	moveq #3,%d0
102011a0:	b0ae 0010      	cmpl %fp@(16),%d0
102011a4:	6600 0092      	bnew 10201238 <insert_blocked_process+0xba>
102011a8:	202e 000c      	movel %fp@(12),%d0
102011ac:	e588           	lsll #2,%d0
102011ae:	41f9 1020 3a98 	lea 10203a98 <bmsg_queue>,%a0
102011b4:	2030 0800      	movel %a0@(00000000,%d0:l),%d0
102011b8:	4a80           	tstl %d0
102011ba:	674a           	beqs 10201206 <insert_blocked_process+0x88>
102011bc:	202e 000c      	movel %fp@(12),%d0
102011c0:	e588           	lsll #2,%d0
102011c2:	41f9 1020 3a98 	lea 10203a98 <bmsg_queue>,%a0
102011c8:	43f0 0800      	lea %a0@(00000000,%d0:l),%a1
102011cc:	2d51 fffc      	movel %a1@,%fp@(-4)
102011d0:	600c           	bras 102011de <insert_blocked_process+0x60>
102011d2:	206e fffc      	moveal %fp@(-4),%a0
102011d6:	2028 0018      	movel %a0@(24),%d0
102011da:	2d40 fffc      	movel %d0,%fp@(-4)
102011de:	206e fffc      	moveal %fp@(-4),%a0
102011e2:	2028 0018      	movel %a0@(24),%d0
102011e6:	4a80           	tstl %d0
102011e8:	66e8           	bnes 102011d2 <insert_blocked_process+0x54>
102011ea:	206e 0008      	moveal %fp@(8),%a0
102011ee:	7003           	moveq #3,%d0
102011f0:	2140 0008      	movel %d0,%a0@(8)
102011f4:	206e fffc      	moveal %fp@(-4),%a0
102011f8:	216e 0008 0018 	movel %fp@(8),%a0@(24)
102011fe:	42ae fff8      	clrl %fp@(-8)
10201202:	6000 00ce      	braw 102012d2 <insert_blocked_process+0x154>
10201206:	202e 000c      	movel %fp@(12),%d0
1020120a:	e588           	lsll #2,%d0
1020120c:	41f9 1020 3a98 	lea 10203a98 <bmsg_queue>,%a0
10201212:	2030 0800      	movel %a0@(00000000,%d0:l),%d0
10201216:	4a80           	tstl %d0
10201218:	6600 00b2      	bnew 102012cc <insert_blocked_process+0x14e>
1020121c:	202e 000c      	movel %fp@(12),%d0
10201220:	e588           	lsll #2,%d0
10201222:	41f9 1020 3a98 	lea 10203a98 <bmsg_queue>,%a0
10201228:	43ee 0008      	lea %fp@(8),%a1
1020122c:	2191 0800      	movel %a1@,%a0@(00000000,%d0:l)
10201230:	42ae fff8      	clrl %fp@(-8)
10201234:	6000 009c      	braw 102012d2 <insert_blocked_process+0x154>
10201238:	7004           	moveq #4,%d0
1020123a:	b0ae 0010      	cmpl %fp@(16),%d0
1020123e:	6600 008c      	bnew 102012cc <insert_blocked_process+0x14e>
10201242:	202e 000c      	movel %fp@(12),%d0
10201246:	e588           	lsll #2,%d0
10201248:	41f9 1020 3a84 	lea 10203a84 <bmem_queue>,%a0
1020124e:	2030 0800      	movel %a0@(00000000,%d0:l),%d0
10201252:	4a80           	tstl %d0
10201254:	6748           	beqs 1020129e <insert_blocked_process+0x120>
10201256:	202e 000c      	movel %fp@(12),%d0
1020125a:	e588           	lsll #2,%d0
1020125c:	41f9 1020 3a84 	lea 10203a84 <bmem_queue>,%a0
10201262:	43f0 0800      	lea %a0@(00000000,%d0:l),%a1
10201266:	2d51 fffc      	movel %a1@,%fp@(-4)
1020126a:	600c           	bras 10201278 <insert_blocked_process+0xfa>
1020126c:	206e fffc      	moveal %fp@(-4),%a0
10201270:	2028 0018      	movel %a0@(24),%d0
10201274:	2d40 fffc      	movel %d0,%fp@(-4)
10201278:	206e fffc      	moveal %fp@(-4),%a0
1020127c:	2028 0018      	movel %a0@(24),%d0
10201280:	4a80           	tstl %d0
10201282:	66e8           	bnes 1020126c <insert_blocked_process+0xee>
10201284:	206e 0008      	moveal %fp@(8),%a0
10201288:	7004           	moveq #4,%d0
1020128a:	2140 0008      	movel %d0,%a0@(8)
1020128e:	206e fffc      	moveal %fp@(-4),%a0
10201292:	216e 0008 0018 	movel %fp@(8),%a0@(24)
10201298:	42ae fff8      	clrl %fp@(-8)
1020129c:	6034           	bras 102012d2 <insert_blocked_process+0x154>
1020129e:	202e 000c      	movel %fp@(12),%d0
102012a2:	e588           	lsll #2,%d0
102012a4:	41f9 1020 3a84 	lea 10203a84 <bmem_queue>,%a0
102012aa:	2030 0800      	movel %a0@(00000000,%d0:l),%d0
102012ae:	4a80           	tstl %d0
102012b0:	661a           	bnes 102012cc <insert_blocked_process+0x14e>
102012b2:	202e 000c      	movel %fp@(12),%d0
102012b6:	e588           	lsll #2,%d0
102012b8:	41f9 1020 3a84 	lea 10203a84 <bmem_queue>,%a0
102012be:	43ee 0008      	lea %fp@(8),%a1
102012c2:	2191 0800      	movel %a1@,%a0@(00000000,%d0:l)
102012c6:	42ae fff8      	clrl %fp@(-8)
102012ca:	6006           	bras 102012d2 <insert_blocked_process+0x154>
102012cc:	70ff           	moveq #-1,%d0
102012ce:	2d40 fff8      	movel %d0,%fp@(-8)
102012d2:	202e fff8      	movel %fp@(-8),%d0
102012d6:	4e5e           	unlk %fp
102012d8:	4e75           	rts

102012da <remove_blocked_process>:
102012da:	4e56 fffc      	linkw %fp,#-4
102012de:	2f02           	movel %d2,%sp@-
102012e0:	7003           	moveq #3,%d0
102012e2:	b0ae 000c      	cmpl %fp@(12),%d0
102012e6:	6600 00c2      	bnew 102013aa <remove_blocked_process+0xd0>
102012ea:	206e 0008      	moveal %fp@(8),%a0
102012ee:	2028 0004      	movel %a0@(4),%d0
102012f2:	e588           	lsll #2,%d0
102012f4:	41f9 1020 3a98 	lea 10203a98 <bmsg_queue>,%a0
102012fa:	2070 0800      	moveal %a0@(00000000,%d0:l),%a0
102012fe:	2210           	movel %a0@,%d1
10201300:	206e 0008      	moveal %fp@(8),%a0
10201304:	2010           	movel %a0@,%d0
10201306:	b081           	cmpl %d1,%d0
10201308:	6648           	bnes 10201352 <remove_blocked_process+0x78>
1020130a:	206e 0008      	moveal %fp@(8),%a0
1020130e:	2028 0018      	movel %a0@(24),%d0
10201312:	4a80           	tstl %d0
10201314:	6724           	beqs 1020133a <remove_blocked_process+0x60>
10201316:	206e 0008      	moveal %fp@(8),%a0
1020131a:	2428 0004      	movel %a0@(4),%d2
1020131e:	206e 0008      	moveal %fp@(8),%a0
10201322:	2028 0018      	movel %a0@(24),%d0
10201326:	2200           	movel %d0,%d1
10201328:	2002           	movel %d2,%d0
1020132a:	e588           	lsll #2,%d0
1020132c:	41f9 1020 3a98 	lea 10203a98 <bmsg_queue>,%a0
10201332:	2181 0800      	movel %d1,%a0@(00000000,%d0:l)
10201336:	6000 0132      	braw 1020146a <remove_blocked_process+0x190>
1020133a:	206e 0008      	moveal %fp@(8),%a0
1020133e:	2028 0004      	movel %a0@(4),%d0
10201342:	e588           	lsll #2,%d0
10201344:	41f9 1020 3a98 	lea 10203a98 <bmsg_queue>,%a0
1020134a:	42b0 0800      	clrl %a0@(00000000,%d0:l)
1020134e:	6000 011a      	braw 1020146a <remove_blocked_process+0x190>
10201352:	206e 0008      	moveal %fp@(8),%a0
10201356:	2028 0004      	movel %a0@(4),%d0
1020135a:	e588           	lsll #2,%d0
1020135c:	41f9 1020 3a98 	lea 10203a98 <bmsg_queue>,%a0
10201362:	43f0 0800      	lea %a0@(00000000,%d0:l),%a1
10201366:	2d51 fffc      	movel %a1@,%fp@(-4)
1020136a:	602e           	bras 1020139a <remove_blocked_process+0xc0>
1020136c:	206e fffc      	moveal %fp@(-4),%a0
10201370:	2028 0018      	movel %a0@(24),%d0
10201374:	b0ae 0008      	cmpl %fp@(8),%d0
10201378:	6614           	bnes 1020138e <remove_blocked_process+0xb4>
1020137a:	206e 0008      	moveal %fp@(8),%a0
1020137e:	2028 0018      	movel %a0@(24),%d0
10201382:	206e fffc      	moveal %fp@(-4),%a0
10201386:	2140 0018      	movel %d0,%a0@(24)
1020138a:	6000 00de      	braw 1020146a <remove_blocked_process+0x190>
1020138e:	206e fffc      	moveal %fp@(-4),%a0
10201392:	2028 0018      	movel %a0@(24),%d0
10201396:	2d40 fffc      	movel %d0,%fp@(-4)
1020139a:	206e fffc      	moveal %fp@(-4),%a0
1020139e:	2028 0018      	movel %a0@(24),%d0
102013a2:	4a80           	tstl %d0
102013a4:	66c6           	bnes 1020136c <remove_blocked_process+0x92>
102013a6:	6000 00c2      	braw 1020146a <remove_blocked_process+0x190>
102013aa:	7004           	moveq #4,%d0
102013ac:	b0ae 000c      	cmpl %fp@(12),%d0
102013b0:	6600 00b8      	bnew 1020146a <remove_blocked_process+0x190>
102013b4:	206e 0008      	moveal %fp@(8),%a0
102013b8:	2028 0004      	movel %a0@(4),%d0
102013bc:	e588           	lsll #2,%d0
102013be:	41f9 1020 3a84 	lea 10203a84 <bmem_queue>,%a0
102013c4:	2070 0800      	moveal %a0@(00000000,%d0:l),%a0
102013c8:	2210           	movel %a0@,%d1
102013ca:	206e 0008      	moveal %fp@(8),%a0
102013ce:	2010           	movel %a0@,%d0
102013d0:	b081           	cmpl %d1,%d0
102013d2:	6644           	bnes 10201418 <remove_blocked_process+0x13e>
102013d4:	206e 0008      	moveal %fp@(8),%a0
102013d8:	2028 0018      	movel %a0@(24),%d0
102013dc:	4a80           	tstl %d0
102013de:	6722           	beqs 10201402 <remove_blocked_process+0x128>
102013e0:	206e 0008      	moveal %fp@(8),%a0
102013e4:	2428 0004      	movel %a0@(4),%d2
102013e8:	206e 0008      	moveal %fp@(8),%a0
102013ec:	2028 0018      	movel %a0@(24),%d0
102013f0:	2200           	movel %d0,%d1
102013f2:	2002           	movel %d2,%d0
102013f4:	e588           	lsll #2,%d0
102013f6:	41f9 1020 3a84 	lea 10203a84 <bmem_queue>,%a0
102013fc:	2181 0800      	movel %d1,%a0@(00000000,%d0:l)
10201400:	6068           	bras 1020146a <remove_blocked_process+0x190>
10201402:	206e 0008      	moveal %fp@(8),%a0
10201406:	2028 0004      	movel %a0@(4),%d0
1020140a:	e588           	lsll #2,%d0
1020140c:	41f9 1020 3a84 	lea 10203a84 <bmem_queue>,%a0
10201412:	42b0 0800      	clrl %a0@(00000000,%d0:l)
10201416:	6052           	bras 1020146a <remove_blocked_process+0x190>
10201418:	206e 0008      	moveal %fp@(8),%a0
1020141c:	2028 0004      	movel %a0@(4),%d0
10201420:	e588           	lsll #2,%d0
10201422:	41f9 1020 3a84 	lea 10203a84 <bmem_queue>,%a0
10201428:	43f0 0800      	lea %a0@(00000000,%d0:l),%a1
1020142c:	2d51 fffc      	movel %a1@,%fp@(-4)
10201430:	602c           	bras 1020145e <remove_blocked_process+0x184>
10201432:	206e fffc      	moveal %fp@(-4),%a0
10201436:	2028 0018      	movel %a0@(24),%d0
1020143a:	b0ae 0008      	cmpl %fp@(8),%d0
1020143e:	6612           	bnes 10201452 <remove_blocked_process+0x178>
10201440:	206e 0008      	moveal %fp@(8),%a0
10201444:	2028 0018      	movel %a0@(24),%d0
10201448:	206e fffc      	moveal %fp@(-4),%a0
1020144c:	2140 0018      	movel %d0,%a0@(24)
10201450:	6018           	bras 1020146a <remove_blocked_process+0x190>
10201452:	206e fffc      	moveal %fp@(-4),%a0
10201456:	2028 0018      	movel %a0@(24),%d0
1020145a:	2d40 fffc      	movel %d0,%fp@(-4)
1020145e:	206e fffc      	moveal %fp@(-4),%a0
10201462:	2028 0018      	movel %a0@(24),%d0
10201466:	4a80           	tstl %d0
10201468:	66c8           	bnes 10201432 <remove_blocked_process+0x158>
1020146a:	206e 0008      	moveal %fp@(8),%a0
1020146e:	42a8 0018      	clrl %a0@(24)
10201472:	202e 0008      	movel %fp@(8),%d0
10201476:	241f           	movel %sp@+,%d2
10201478:	4e5e           	unlk %fp
1020147a:	4e75           	rts

1020147c <context_switch>:
1020147c:	4e56 fff4      	linkw %fp,#-12
10201480:	2f02           	movel %d2,%sp@-
10201482:	4eba 021e      	jsr %pc@(102016a2 <atomic_up>)
10201486:	41f9 1020 3aac 	lea 10203aac <running>,%a0
1020148c:	2d50 fff8      	movel %a0@,%fp@(-8)
10201490:	2039 1020 3a80 	movel 10203a80 <old_fp>,%d0
10201496:	206e fff8      	moveal %fp@(-8),%a0
1020149a:	2140 000c      	movel %d0,%a0@(12)
1020149e:	206e fff8      	moveal %fp@(-8),%a0
102014a2:	2028 0018      	movel %a0@(24),%d0
102014a6:	4a80           	tstl %d0
102014a8:	676e           	beqs 10201518 <context_switch+0x9c>
102014aa:	2439 1020 3a94 	movel 10203a94 <prio>,%d2
102014b0:	2039 1020 3a94 	movel 10203a94 <prio>,%d0
102014b6:	e588           	lsll #2,%d0
102014b8:	41f9 1020 3e3e 	lea 10203e3e <ready_queue>,%a0
102014be:	2070 0800      	moveal %a0@(00000000,%d0:l),%a0
102014c2:	2028 0018      	movel %a0@(24),%d0
102014c6:	2200           	movel %d0,%d1
102014c8:	2002           	movel %d2,%d0
102014ca:	e588           	lsll #2,%d0
102014cc:	41f9 1020 3e3e 	lea 10203e3e <ready_queue>,%a0
102014d2:	2181 0800      	movel %d1,%a0@(00000000,%d0:l)
102014d6:	2039 1020 3a94 	movel 10203a94 <prio>,%d0
102014dc:	e588           	lsll #2,%d0
102014de:	41f9 1020 3e3e 	lea 10203e3e <ready_queue>,%a0
102014e4:	43f0 0800      	lea %a0@(00000000,%d0:l),%a1
102014e8:	2d51 fffc      	movel %a1@,%fp@(-4)
102014ec:	600c           	bras 102014fa <context_switch+0x7e>
102014ee:	206e fffc      	moveal %fp@(-4),%a0
102014f2:	2028 0018      	movel %a0@(24),%d0
102014f6:	2d40 fffc      	movel %d0,%fp@(-4)
102014fa:	206e fffc      	moveal %fp@(-4),%a0
102014fe:	2028 0018      	movel %a0@(24),%d0
10201502:	4a80           	tstl %d0
10201504:	66e8           	bnes 102014ee <context_switch+0x72>
10201506:	206e fffc      	moveal %fp@(-4),%a0
1020150a:	216e fff8 0018 	movel %fp@(-8),%a0@(24)
10201510:	206e fff8      	moveal %fp@(-8),%a0
10201514:	42a8 0018      	clrl %a0@(24)
10201518:	206e fff8      	moveal %fp@(-8),%a0
1020151c:	7001           	moveq #1,%d0
1020151e:	2140 0008      	movel %d0,%a0@(8)
10201522:	4eba f9ea      	jsr %pc@(10200f0e <clear_priority>)
10201526:	2039 1020 3a94 	movel 10203a94 <prio>,%d0
1020152c:	e588           	lsll #2,%d0
1020152e:	41f9 1020 3e3e 	lea 10203e3e <ready_queue>,%a0
10201534:	2030 0800      	movel %a0@(00000000,%d0:l),%d0
10201538:	4a80           	tstl %d0
1020153a:	6700 00c6      	beqw 10201602 <context_switch+0x186>
1020153e:	2039 1020 3a94 	movel 10203a94 <prio>,%d0
10201544:	e588           	lsll #2,%d0
10201546:	41f9 1020 3e3e 	lea 10203e3e <ready_queue>,%a0
1020154c:	2070 0800      	moveal %a0@(00000000,%d0:l),%a0
10201550:	2028 0008      	movel %a0@(8),%d0
10201554:	7201           	moveq #1,%d1
10201556:	b280           	cmpl %d0,%d1
10201558:	663c           	bnes 10201596 <context_switch+0x11a>
1020155a:	2039 1020 3a94 	movel 10203a94 <prio>,%d0
10201560:	e588           	lsll #2,%d0
10201562:	41f9 1020 3e3e 	lea 10203e3e <ready_queue>,%a0
10201568:	2030 0800      	movel %a0@(00000000,%d0:l),%d0
1020156c:	23c0 1020 3aac 	movel %d0,10203aac <running>
10201572:	2079 1020 3aac 	moveal 10203aac <running>,%a0
10201578:	7002           	moveq #2,%d0
1020157a:	2140 0008      	movel %d0,%a0@(8)
1020157e:	2079 1020 3aac 	moveal 10203aac <running>,%a0
10201584:	2028 000c      	movel %a0@(12),%d0
10201588:	23c0 1020 3a80 	movel %d0,10203a80 <old_fp>
1020158e:	4eba 011e      	jsr %pc@(102016ae <atomic_down>)
10201592:	6000 00a4      	braw 10201638 <context_switch+0x1bc>
10201596:	2039 1020 3a94 	movel 10203a94 <prio>,%d0
1020159c:	e588           	lsll #2,%d0
1020159e:	41f9 1020 3e3e 	lea 10203e3e <ready_queue>,%a0
102015a4:	2070 0800      	moveal %a0@(00000000,%d0:l),%a0
102015a8:	2028 0008      	movel %a0@(8),%d0
102015ac:	4a80           	tstl %d0
102015ae:	6600 0088      	bnew 10201638 <context_switch+0x1bc>
102015b2:	2039 1020 3a94 	movel 10203a94 <prio>,%d0
102015b8:	e588           	lsll #2,%d0
102015ba:	41f9 1020 3e3e 	lea 10203e3e <ready_queue>,%a0
102015c0:	2030 0800      	movel %a0@(00000000,%d0:l),%d0
102015c4:	23c0 1020 3aac 	movel %d0,10203aac <running>
102015ca:	2079 1020 3aac 	moveal 10203aac <running>,%a0
102015d0:	7202           	moveq #2,%d1
102015d2:	2141 0008      	movel %d1,%a0@(8)
102015d6:	4eba 00d6      	jsr %pc@(102016ae <atomic_down>)
102015da:	2079 1020 3aac 	moveal 10203aac <running>,%a0
102015e0:	2028 0010      	movel %a0@(16),%d0
102015e4:	23c0 1020 3e36 	movel %d0,10203e36 <temp_sp>
102015ea:	2039 1020 3e36 	movel 10203e36 <temp_sp>,%d0
102015f0:	2e40           	moveal %d0,%sp
102015f2:	2039 1020 3aac 	movel 10203aac <running>,%d0
102015f8:	2f00           	movel %d0,%sp@-
102015fa:	4eba f8c4      	jsr %pc@(10200ec0 <process_bootstrap>)
102015fe:	588f           	addql #4,%sp
10201600:	6036           	bras 10201638 <context_switch+0x1bc>
10201602:	2039 1020 3a94 	movel 10203a94 <prio>,%d0
10201608:	5280           	addql #1,%d0
1020160a:	2200           	movel %d0,%d1
1020160c:	0281 8000 0003 	andil #-2147483645,%d1
10201612:	2d41 fff4      	movel %d1,%fp@(-12)
10201616:	4aae fff4      	tstl %fp@(-12)
1020161a:	6c0e           	bges 1020162a <context_switch+0x1ae>
1020161c:	53ae fff4      	subql #1,%fp@(-12)
10201620:	70fc           	moveq #-4,%d0
10201622:	81ae fff4      	orl %d0,%fp@(-12)
10201626:	52ae fff4      	addql #1,%fp@(-12)
1020162a:	202e fff4      	movel %fp@(-12),%d0
1020162e:	23c0 1020 3a94 	movel %d0,10203a94 <prio>
10201634:	6000 fef0      	braw 10201526 <context_switch+0xaa>
10201638:	242e fff0      	movel %fp@(-16),%d2
1020163c:	4e5e           	unlk %fp
1020163e:	4e75           	rts

10201640 <find_blocked_proc_by_id>:
10201640:	4e56 fff4      	linkw %fp,#-12
10201644:	42ae fffc      	clrl %fp@(-4)
10201648:	6044           	bras 1020168e <find_blocked_proc_by_id+0x4e>
1020164a:	202e fffc      	movel %fp@(-4),%d0
1020164e:	e588           	lsll #2,%d0
10201650:	41f9 1020 3a98 	lea 10203a98 <bmsg_queue>,%a0
10201656:	43f0 0800      	lea %a0@(00000000,%d0:l),%a1
1020165a:	2d51 fff8      	movel %a1@,%fp@(-8)
1020165e:	6024           	bras 10201684 <find_blocked_proc_by_id+0x44>
10201660:	206e fff8      	moveal %fp@(-8),%a0
10201664:	2210           	movel %a0@,%d1
10201666:	202e 0008      	movel %fp@(8),%d0
1020166a:	b081           	cmpl %d1,%d0
1020166c:	660a           	bnes 10201678 <find_blocked_proc_by_id+0x38>
1020166e:	202e fff8      	movel %fp@(-8),%d0
10201672:	2d40 fff4      	movel %d0,%fp@(-12)
10201676:	6022           	bras 1020169a <find_blocked_proc_by_id+0x5a>
10201678:	206e fff8      	moveal %fp@(-8),%a0
1020167c:	2028 0018      	movel %a0@(24),%d0
10201680:	2d40 fff8      	movel %d0,%fp@(-8)
10201684:	4aae fff8      	tstl %fp@(-8)
10201688:	66d6           	bnes 10201660 <find_blocked_proc_by_id+0x20>
1020168a:	52ae fffc      	addql #1,%fp@(-4)
1020168e:	7003           	moveq #3,%d0
10201690:	b0ae fffc      	cmpl %fp@(-4),%d0
10201694:	6cb4           	bges 1020164a <find_blocked_proc_by_id+0xa>
10201696:	42ae fff4      	clrl %fp@(-12)
1020169a:	202e fff4      	movel %fp@(-12),%d0
1020169e:	4e5e           	unlk %fp
102016a0:	4e75           	rts

102016a2 <atomic_up>:
102016a2:	4e56 0000      	linkw %fp,#0
102016a6:	46fc 2700      	movew #9984,%sr
102016aa:	4e5e           	unlk %fp
102016ac:	4e75           	rts

102016ae <atomic_down>:
102016ae:	4e56 0000      	linkw %fp,#0
102016b2:	46fc 2000      	movew #8192,%sr
102016b6:	4e5e           	unlk %fp
102016b8:	4e75           	rts
	...

102016bc <store_message>:
102016bc:	4e56 fffc      	linkw %fp,#-4
102016c0:	202e 0008      	movel %fp@(8),%d0
102016c4:	1d40 fffe      	moveb %d0,%fp@(-2)
102016c8:	2239 1020 3e70 	movel 10203e70 <kcd_msg>,%d1
102016ce:	2039 1020 3e4e 	movel 10203e4e <msg_length>,%d0
102016d4:	2041           	moveal %d1,%a0
102016d6:	d1c0           	addal %d0,%a0
102016d8:	10ae fffe      	moveb %fp@(-2),%a0@
102016dc:	2039 1020 3e4e 	movel 10203e4e <msg_length>,%d0
102016e2:	5280           	addql #1,%d0
102016e4:	23c0 1020 3e4e 	movel %d0,10203e4e <msg_length>
102016ea:	4e5e           	unlk %fp
102016ec:	4e75           	rts

102016ee <clear_message>:
102016ee:	4e56 fffc      	linkw %fp,#-4
102016f2:	42ae fffc      	clrl %fp@(-4)
102016f6:	6014           	bras 1020170c <clear_message+0x1e>
102016f8:	2039 1020 3e70 	movel 10203e70 <kcd_msg>,%d0
102016fe:	222e fffc      	movel %fp@(-4),%d1
10201702:	2040           	moveal %d0,%a0
10201704:	d1c1           	addal %d1,%a0
10201706:	4210           	clrb %a0@
10201708:	52ae fffc      	addql #1,%fp@(-4)
1020170c:	2039 1020 3e4e 	movel 10203e4e <msg_length>,%d0
10201712:	b0ae fffc      	cmpl %fp@(-4),%d0
10201716:	6ce0           	bges 102016f8 <clear_message+0xa>
10201718:	42b9 1020 3e4e 	clrl 10203e4e <msg_length>
1020171e:	4e5e           	unlk %fp
10201720:	4e75           	rts

10201722 <uprintf>:
10201722:	4e56 fff8      	linkw %fp,#-8
10201726:	42ae fffc      	clrl %fp@(-4)
1020172a:	604c           	bras 10201778 <uprintf+0x56>
1020172c:	207c f000 0204 	moveal #-268434940,%a0
10201732:	1d50 fffb      	moveb %a0@,%fp@(-5)
10201736:	600a           	bras 10201742 <uprintf+0x20>
10201738:	207c f000 0204 	moveal #-268434940,%a0
1020173e:	1d50 fffb      	moveb %a0@,%fp@(-5)
10201742:	4280           	clrl %d0
10201744:	102e fffb      	moveb %fp@(-5),%d0
10201748:	7204           	moveq #4,%d1
1020174a:	c081           	andl %d1,%d0
1020174c:	4a80           	tstl %d0
1020174e:	67e8           	beqs 10201738 <uprintf+0x16>
10201750:	227c f000 020c 	moveal #-268434932,%a1
10201756:	202e fffc      	movel %fp@(-4),%d0
1020175a:	206e 0008      	moveal %fp@(8),%a0
1020175e:	d1c0           	addal %d0,%a0
10201760:	1010           	moveb %a0@,%d0
10201762:	1280           	moveb %d0,%a1@
10201764:	52ae fffc      	addql #1,%fp@(-4)
10201768:	207c f000 0214 	moveal #-268434924,%a0
1020176e:	10bc 0002      	moveb #2,%a0@
10201772:	4200           	clrb %d0
10201774:	1d40 fffb      	moveb %d0,%fp@(-5)
10201778:	202e fffc      	movel %fp@(-4),%d0
1020177c:	206e 0008      	moveal %fp@(8),%a0
10201780:	d1c0           	addal %d0,%a0
10201782:	1010           	moveb %a0@,%d0
10201784:	4a00           	tstb %d0
10201786:	66a4           	bnes 1020172c <uprintf+0xa>
10201788:	4e5e           	unlk %fp
1020178a:	4e75           	rts

1020178c <uprintn>:
1020178c:	4e56 fff8      	linkw %fp,#-8
10201790:	202e 0008      	movel %fp@(8),%d0
10201794:	1000           	moveb %d0,%d0
10201796:	0680 0000 0030 	addil #48,%d0
1020179c:	1000           	moveb %d0,%d0
1020179e:	1d40 fff9      	moveb %d0,%fp@(-7)
102017a2:	4200           	clrb %d0
102017a4:	1d40 fffa      	moveb %d0,%fp@(-6)
102017a8:	42ae fffc      	clrl %fp@(-4)
102017ac:	6048           	bras 102017f6 <uprintn+0x6a>
102017ae:	207c f000 0204 	moveal #-268434940,%a0
102017b4:	1d50 fffb      	moveb %a0@,%fp@(-5)
102017b8:	600a           	bras 102017c4 <uprintn+0x38>
102017ba:	207c f000 0204 	moveal #-268434940,%a0
102017c0:	1d50 fffb      	moveb %a0@,%fp@(-5)
102017c4:	4280           	clrl %d0
102017c6:	102e fffb      	moveb %fp@(-5),%d0
102017ca:	7204           	moveq #4,%d1
102017cc:	c081           	andl %d1,%d0
102017ce:	4a80           	tstl %d0
102017d0:	67e8           	beqs 102017ba <uprintn+0x2e>
102017d2:	207c f000 020c 	moveal #-268434932,%a0
102017d8:	202e fffc      	movel %fp@(-4),%d0
102017dc:	1036 08f9      	moveb %fp@(fffffff9,%d0:l),%d0
102017e0:	1080           	moveb %d0,%a0@
102017e2:	52ae fffc      	addql #1,%fp@(-4)
102017e6:	207c f000 0214 	moveal #-268434924,%a0
102017ec:	10bc 0002      	moveb #2,%a0@
102017f0:	4200           	clrb %d0
102017f2:	1d40 fffb      	moveb %d0,%fp@(-5)
102017f6:	202e fffc      	movel %fp@(-4),%d0
102017fa:	1036 08f9      	moveb %fp@(fffffff9,%d0:l),%d0
102017fe:	4a00           	tstb %d0
10201800:	66ac           	bnes 102017ae <uprintn+0x22>
10201802:	4e5e           	unlk %fp
10201804:	4e75           	rts

10201806 <c_serial_handler>:
10201806:	4e56 fff4      	linkw %fp,#-12
1020180a:	4eb9 1020 16a2 	jsr 102016a2 <atomic_up>
10201810:	4200           	clrb %d0
10201812:	13c0 1020 3d34 	moveb %d0,10203d34 <CharIn>
10201818:	207c f000 0204 	moveal #-268434940,%a0
1020181e:	1d50 fffb      	moveb %a0@,%fp@(-5)
10201822:	207c f000 0214 	moveal #-268434924,%a0
10201828:	10bc 0003      	moveb #3,%a0@
1020182c:	4280           	clrl %d0
1020182e:	102e fffb      	moveb %fp@(-5),%d0
10201832:	7201           	moveq #1,%d1
10201834:	c081           	andl %d1,%d0
10201836:	1000           	moveb %d0,%d0
10201838:	4a00           	tstb %d0
1020183a:	6726           	beqs 10201862 <c_serial_handler+0x5c>
1020183c:	207c f000 020c 	moveal #-268434932,%a0
10201842:	1010           	moveb %a0@,%d0
10201844:	13c0 1020 3d34 	moveb %d0,10203d34 <CharIn>
1020184a:	1039 1020 3d34 	moveb 10203d34 <CharIn>,%d0
10201850:	13c0 1020 3e6e 	moveb %d0,10203e6e <CharOut>
10201856:	600a           	bras 10201862 <c_serial_handler+0x5c>
10201858:	207c f000 0204 	moveal #-268434940,%a0
1020185e:	1d50 fffb      	moveb %a0@,%fp@(-5)
10201862:	4280           	clrl %d0
10201864:	102e fffb      	moveb %fp@(-5),%d0
10201868:	7204           	moveq #4,%d1
1020186a:	c081           	andl %d1,%d0
1020186c:	4a80           	tstl %d0
1020186e:	67e8           	beqs 10201858 <c_serial_handler+0x52>
10201870:	207c f000 0214 	moveal #-268434924,%a0
10201876:	10bc 0002      	moveb #2,%a0@
1020187a:	4280           	clrl %d0
1020187c:	102e fffb      	moveb %fp@(-5),%d0
10201880:	7204           	moveq #4,%d1
10201882:	c081           	andl %d1,%d0
10201884:	4a80           	tstl %d0
10201886:	6700 017a      	beqw 10201a02 <c_serial_handler+0x1fc>
1020188a:	1039 1020 3d34 	moveb 10203d34 <CharIn>,%d0
10201890:	1000           	moveb %d0,%d0
10201892:	0280 0000 00ff 	andil #255,%d0
10201898:	2200           	movel %d0,%d1
1020189a:	0681 ffff fff3 	addil #-13,%d1
102018a0:	2d41 fff4      	movel %d1,%fp@(-12)
102018a4:	7033           	moveq #51,%d0
102018a6:	b0ae fff4      	cmpl %fp@(-12),%d0
102018aa:	6500 012c      	bcsw 102019d8 <c_serial_handler+0x1d2>
102018ae:	222e fff4      	movel %fp@(-12),%d1
102018b2:	303b 1a08      	movew %pc@(102018bc <c_serial_handler+0xb6>,%d1:l:2),%d0
102018b6:	48c0           	extl %d0
102018b8:	4efb 0802      	jmp %pc@(102018bc <c_serial_handler+0xb6>,%d0:l)
102018bc:	0068           	0150
102018be:	011c           	btst %d0,%a4@+
102018c0:	011c           	btst %d0,%a4@+
102018c2:	011c           	btst %d0,%a4@+
102018c4:	011c           	btst %d0,%a4@+
102018c6:	011c           	btst %d0,%a4@+
102018c8:	011c           	btst %d0,%a4@+
102018ca:	011c           	btst %d0,%a4@+
102018cc:	011c           	btst %d0,%a4@+
102018ce:	011c           	btst %d0,%a4@+
102018d0:	011c           	btst %d0,%a4@+
102018d2:	011c           	btst %d0,%a4@+
102018d4:	011c           	btst %d0,%a4@+
102018d6:	011c           	btst %d0,%a4@+
102018d8:	011c           	btst %d0,%a4@+
102018da:	011c           	btst %d0,%a4@+
102018dc:	011c           	btst %d0,%a4@+
102018de:	011c           	btst %d0,%a4@+
102018e0:	011c           	btst %d0,%a4@+
102018e2:	011c           	btst %d0,%a4@+
102018e4:	00d8           	0330
102018e6:	011c           	btst %d0,%a4@+
102018e8:	0146           	bchg %d0,%d6
102018ea:	0146           	bchg %d0,%d6
102018ec:	00c4           	0304
102018ee:	011c           	btst %d0,%a4@+
102018f0:	011c           	btst %d0,%a4@+
102018f2:	011c           	btst %d0,%a4@+
102018f4:	011c           	btst %d0,%a4@+
102018f6:	011c           	btst %d0,%a4@+
102018f8:	011c           	btst %d0,%a4@+
102018fa:	011c           	btst %d0,%a4@+
102018fc:	011c           	btst %d0,%a4@+
102018fe:	011c           	btst %d0,%a4@+
10201900:	011c           	btst %d0,%a4@+
10201902:	011c           	btst %d0,%a4@+
10201904:	011c           	btst %d0,%a4@+
10201906:	011c           	btst %d0,%a4@+
10201908:	011c           	btst %d0,%a4@+
1020190a:	011c           	btst %d0,%a4@+
1020190c:	011c           	btst %d0,%a4@+
1020190e:	011c           	btst %d0,%a4@+
10201910:	011c           	btst %d0,%a4@+
10201912:	011c           	btst %d0,%a4@+
10201914:	011c           	btst %d0,%a4@+
10201916:	011c           	btst %d0,%a4@+
10201918:	011c           	btst %d0,%a4@+
1020191a:	011c           	btst %d0,%a4@+
1020191c:	011c           	btst %d0,%a4@+
1020191e:	011c           	btst %d0,%a4@+
10201920:	011c           	btst %d0,%a4@+
10201922:	00fa           	0372
10201924:	4879 1020 2a3c 	pea 10202a3c <crlfgt>
1020192a:	4eba fdf6      	jsr %pc@(10201722 <uprintf>)
1020192e:	588f           	addql #4,%sp
10201930:	2039 1020 3e52 	movel 10203e52 <command_flag>,%d0
10201936:	7201           	moveq #1,%d1
10201938:	b280           	cmpl %d0,%d1
1020193a:	6600 00c6      	bnew 10201a02 <c_serial_handler+0x1fc>
1020193e:	42a7           	clrl %sp@-
10201940:	4eba fd7a      	jsr %pc@(102016bc <store_message>)
10201944:	588f           	addql #4,%sp
10201946:	4eb9 1020 0834 	jsr 10200834 <request_memory_block>
1020194c:	2d40 fffc      	movel %d0,%fp@(-4)
10201950:	2039 1020 3e70 	movel 10203e70 <kcd_msg>,%d0
10201956:	2f00           	movel %d0,%sp@-
10201958:	2f2e fffc      	movel %fp@(-4),%sp@-
1020195c:	4eb9 1020 0cc4 	jsr 10200cc4 <write_message>
10201962:	508f           	addql #8,%sp
10201964:	2f00           	movel %d0,%sp@-
10201966:	4878 0007      	pea 7 <__DYNAMIC+0x7>
1020196a:	4eb9 1020 095c 	jsr 1020095c <send_message>
10201970:	508f           	addql #8,%sp
10201972:	42b9 1020 3e52 	clrl 10203e52 <command_flag>
10201978:	4eba fd74      	jsr %pc@(102016ee <clear_message>)
1020197c:	6000 0084      	braw 10201a02 <c_serial_handler+0x1fc>
10201980:	207c f000 020c 	moveal #-268434932,%a0
10201986:	10bc 0025      	moveb #37,%a0@
1020198a:	7001           	moveq #1,%d0
1020198c:	23c0 1020 3e52 	movel %d0,10203e52 <command_flag>
10201992:	606e           	bras 10201a02 <c_serial_handler+0x1fc>
10201994:	207c f000 020c 	moveal #-268434932,%a0
1020199a:	1039 1020 3e6e 	moveb 10203e6e <CharOut>,%d0
102019a0:	1080           	moveb %d0,%a0@
102019a2:	4eb9 1020 0564 	jsr 10200564 <display_queue_all>
102019a8:	4878 0005      	pea 5 <__DYNAMIC+0x5>
102019ac:	4eb9 1020 24a8 	jsr 102024a8 <sleep>
102019b2:	588f           	addql #4,%sp
102019b4:	604c           	bras 10201a02 <c_serial_handler+0x1fc>
102019b6:	207c f000 020c 	moveal #-268434932,%a0
102019bc:	1039 1020 3e6e 	moveb 10203e6e <CharOut>,%d0
102019c2:	1080           	moveb %d0,%a0@
102019c4:	4eb9 1020 047e 	jsr 1020047e <task_manager>
102019ca:	4878 0005      	pea 5 <__DYNAMIC+0x5>
102019ce:	4eb9 1020 24a8 	jsr 102024a8 <sleep>
102019d4:	588f           	addql #4,%sp
102019d6:	602a           	bras 10201a02 <c_serial_handler+0x1fc>
102019d8:	2039 1020 3e52 	movel 10203e52 <command_flag>,%d0
102019de:	7201           	moveq #1,%d1
102019e0:	b280           	cmpl %d0,%d1
102019e2:	6610           	bnes 102019f4 <c_serial_handler+0x1ee>
102019e4:	1039 1020 3e6e 	moveb 10203e6e <CharOut>,%d0
102019ea:	49c0           	extbl %d0
102019ec:	2f00           	movel %d0,%sp@-
102019ee:	4eba fccc      	jsr %pc@(102016bc <store_message>)
102019f2:	588f           	addql #4,%sp
102019f4:	207c f000 020c 	moveal #-268434932,%a0
102019fa:	1039 1020 3e6e 	moveb 10203e6e <CharOut>,%d0
10201a00:	1080           	moveb %d0,%a0@
10201a02:	4eb9 1020 16ae 	jsr 102016ae <atomic_down>
10201a08:	4e5e           	unlk %fp
10201a0a:	4e75           	rts

10201a0c <register_command>:
10201a0c:	4e56 0000      	linkw %fp,#0
10201a10:	4878 0008      	pea 8 <__DYNAMIC+0x8>
10201a14:	4eb9 1020 0720 	jsr 10200720 <malloc>
10201a1a:	588f           	addql #4,%sp
10201a1c:	23c0 1020 3d30 	movel %d0,10203d30 <init_key_tail>
10201a22:	2079 1020 3d30 	moveal 10203d30 <init_key_tail>,%a0
10201a28:	2250           	moveal %a0@,%a1
10201a2a:	206e 0008      	moveal %fp@(8),%a0
10201a2e:	1010           	moveb %a0@,%d0
10201a30:	1280           	moveb %d0,%a1@
10201a32:	2079 1020 3d30 	moveal 10203d30 <init_key_tail>,%a0
10201a38:	42a8 0004      	clrl %a0@(4)
10201a3c:	2079 1020 3d30 	moveal 10203d30 <init_key_tail>,%a0
10201a42:	2028 0004      	movel %a0@(4),%d0
10201a46:	23c0 1020 3d30 	movel %d0,10203d30 <init_key_tail>
10201a4c:	2039 1020 3d30 	movel 10203d30 <init_key_tail>,%d0
10201a52:	4e5e           	unlk %fp
10201a54:	4e75           	rts
	...

10201a58 <kcd>:
10201a58:	4e56 ffe0      	linkw %fp,#-32
10201a5c:	42ae fff0      	clrl %fp@(-16)
10201a60:	42ae fff4      	clrl %fp@(-12)
10201a64:	42ae fff8      	clrl %fp@(-8)
10201a68:	42a7           	clrl %sp@-
10201a6a:	4eb9 1020 0aa2 	jsr 10200aa2 <receive_message>
10201a70:	588f           	addql #4,%sp
10201a72:	2d40 ffe8      	movel %d0,%fp@(-24)
10201a76:	2f2e ffe8      	movel %fp@(-24),%sp@-
10201a7a:	4eb9 1020 0d18 	jsr 10200d18 <read_message>
10201a80:	588f           	addql #4,%sp
10201a82:	2d40 fffc      	movel %d0,%fp@(-4)
10201a86:	206e fffc      	moveal %fp@(-4),%a0
10201a8a:	1010           	moveb %a0@,%d0
10201a8c:	1200           	moveb %d0,%d1
10201a8e:	49c1           	extbl %d1
10201a90:	2d41 ffe0      	movel %d1,%fp@(-32)
10201a94:	7052           	moveq #82,%d0
10201a96:	b0ae ffe0      	cmpl %fp@(-32),%d0
10201a9a:	6700 0202      	beqw 10201c9e <kcd+0x246>
10201a9e:	7257           	moveq #87,%d1
10201aa0:	b2ae ffe0      	cmpl %fp@(-32),%d1
10201aa4:	670e           	beqs 10201ab4 <kcd+0x5c>
10201aa6:	7043           	moveq #67,%d0
10201aa8:	b0ae ffe0      	cmpl %fp@(-32),%d0
10201aac:	6700 00c8      	beqw 10201b76 <kcd+0x11e>
10201ab0:	6000 0214      	braw 10201cc6 <kcd+0x26e>
10201ab4:	4eb9 1020 0834 	jsr 10200834 <request_memory_block>
10201aba:	2d40 ffec      	movel %d0,%fp@(-20)
10201abe:	206e fffc      	moveal %fp@(-4),%a0
10201ac2:	5288           	addql #1,%a0
10201ac4:	1010           	moveb %a0@,%d0
10201ac6:	1200           	moveb %d0,%d1
10201ac8:	49c1           	extbl %d1
10201aca:	2d41 ffe4      	movel %d1,%fp@(-28)
10201ace:	7053           	moveq #83,%d0
10201ad0:	b0ae ffe4      	cmpl %fp@(-28),%d0
10201ad4:	670a           	beqs 10201ae0 <kcd+0x88>
10201ad6:	7254           	moveq #84,%d1
10201ad8:	b2ae ffe4      	cmpl %fp@(-28),%d1
10201adc:	6728           	beqs 10201b06 <kcd+0xae>
10201ade:	6044           	bras 10201b24 <kcd+0xcc>
10201ae0:	2f2e ffe8      	movel %fp@(-24),%sp@-
10201ae4:	4878 0009      	pea 9 <__DYNAMIC+0x9>
10201ae8:	4eb9 1020 095c 	jsr 1020095c <send_message>
10201aee:	508f           	addql #8,%sp
10201af0:	7001           	moveq #1,%d0
10201af2:	23c0 1020 3e56 	movel %d0,10203e56 <current_command>
10201af8:	2f2e ffec      	movel %fp@(-20),%sp@-
10201afc:	4eb9 1020 08e2 	jsr 102008e2 <release_memory_block>
10201b02:	588f           	addql #4,%sp
10201b04:	6058           	bras 10201b5e <kcd+0x106>
10201b06:	42b9 1020 3e62 	clrl 10203e62 <timer_display>
10201b0c:	4879 1020 29a6 	pea 102029a6 <__DTOR_END__+0x4c6>
10201b12:	4eb9 1020 1722 	jsr 10201722 <uprintf>
10201b18:	588f           	addql #4,%sp
10201b1a:	7202           	moveq #2,%d1
10201b1c:	23c1 1020 3e56 	movel %d1,10203e56 <current_command>
10201b22:	603a           	bras 10201b5e <kcd+0x106>
10201b24:	7001           	moveq #1,%d0
10201b26:	23c0 1020 3e62 	movel %d0,10203e62 <timer_display>
10201b2c:	4879 1020 29be 	pea 102029be <__DTOR_END__+0x4de>
10201b32:	2f2e ffec      	movel %fp@(-20),%sp@-
10201b36:	4eb9 1020 0cc4 	jsr 10200cc4 <write_message>
10201b3c:	508f           	addql #8,%sp
10201b3e:	2f00           	movel %d0,%sp@-
10201b40:	4878 0009      	pea 9 <__DYNAMIC+0x9>
10201b44:	4eb9 1020 095c 	jsr 1020095c <send_message>
10201b4a:	508f           	addql #8,%sp
10201b4c:	42b9 1020 3e56 	clrl 10203e56 <current_command>
10201b52:	600a           	bras 10201b5e <kcd+0x106>
10201b54:	206e fffc      	moveal %fp@(-4),%a0
10201b58:	4210           	clrb %a0@
10201b5a:	52ae fffc      	addql #1,%fp@(-4)
10201b5e:	206e fffc      	moveal %fp@(-4),%a0
10201b62:	1010           	moveb %a0@,%d0
10201b64:	4a00           	tstb %d0
10201b66:	66ec           	bnes 10201b54 <kcd+0xfc>
10201b68:	206e fffc      	moveal %fp@(-4),%a0
10201b6c:	1010           	moveb %a0@,%d0
10201b6e:	4a00           	tstb %d0
10201b70:	66e2           	bnes 10201b54 <kcd+0xfc>
10201b72:	6000 018a      	braw 10201cfe <kcd+0x2a6>
10201b76:	2039 1020 3e62 	movel 10203e62 <timer_display>,%d0
10201b7c:	4a80           	tstl %d0
10201b7e:	6600 0110      	bnew 10201c90 <kcd+0x238>
10201b82:	7203           	moveq #3,%d1
10201b84:	23c1 1020 3e56 	movel %d1,10203e56 <current_command>
10201b8a:	206e fffc      	moveal %fp@(-4),%a0
10201b8e:	5488           	addql #2,%a0
10201b90:	1010           	moveb %a0@,%d0
10201b92:	49c0           	extbl %d0
10201b94:	2200           	movel %d0,%d1
10201b96:	0681 ffff ffd0 	addil #-48,%d1
10201b9c:	2d41 fff0      	movel %d1,%fp@(-16)
10201ba0:	206e fffc      	moveal %fp@(-4),%a0
10201ba4:	5888           	addql #4,%a0
10201ba6:	1010           	moveb %a0@,%d0
10201ba8:	49c0           	extbl %d0
10201baa:	2200           	movel %d0,%d1
10201bac:	0681 ffff ffd0 	addil #-48,%d1
10201bb2:	2d41 fff4      	movel %d1,%fp@(-12)
10201bb6:	206e fffc      	moveal %fp@(-4),%a0
10201bba:	5688           	addql #3,%a0
10201bbc:	1010           	moveb %a0@,%d0
10201bbe:	49c0           	extbl %d0
10201bc0:	0680 ffff ffd0 	addil #-48,%d0
10201bc6:	4a80           	tstl %d0
10201bc8:	6d10           	blts 10201bda <kcd+0x182>
10201bca:	4878 0003      	pea 3 <__DYNAMIC+0x3>
10201bce:	4eb9 1020 02d4 	jsr 102002d4 <exception>
10201bd4:	588f           	addql #4,%sp
10201bd6:	6000 00a2      	braw 10201c7a <kcd+0x222>
10201bda:	206e fffc      	moveal %fp@(-4),%a0
10201bde:	5a88           	addql #5,%a0
10201be0:	1010           	moveb %a0@,%d0
10201be2:	49c0           	extbl %d0
10201be4:	0680 ffff ffd0 	addil #-48,%d0
10201bea:	4a80           	tstl %d0
10201bec:	6d0e           	blts 10201bfc <kcd+0x1a4>
10201bee:	4878 0001      	pea 1 <__DYNAMIC+0x1>
10201bf2:	4eb9 1020 02d4 	jsr 102002d4 <exception>
10201bf8:	588f           	addql #4,%sp
10201bfa:	607e           	bras 10201c7a <kcd+0x222>
10201bfc:	4879 1020 29c0 	pea 102029c0 <__DTOR_END__+0x4e0>
10201c02:	4eb9 1020 1722 	jsr 10201722 <uprintf>
10201c08:	588f           	addql #4,%sp
10201c0a:	2f2e fff4      	movel %fp@(-12),%sp@-
10201c0e:	2f2e fff0      	movel %fp@(-16),%sp@-
10201c12:	4eb9 1020 0d34 	jsr 10200d34 <set_process_priority>
10201c18:	508f           	addql #8,%sp
10201c1a:	2d40 fff8      	movel %d0,%fp@(-8)
10201c1e:	4aae fff8      	tstl %fp@(-8)
10201c22:	6656           	bnes 10201c7a <kcd+0x222>
10201c24:	4879 1020 29d6 	pea 102029d6 <__DTOR_END__+0x4f6>
10201c2a:	4eb9 1020 1722 	jsr 10201722 <uprintf>
10201c30:	588f           	addql #4,%sp
10201c32:	4878 0001      	pea 1 <__DYNAMIC+0x1>
10201c36:	2f2e fff0      	movel %fp@(-16),%sp@-
10201c3a:	4eb9 1020 178c 	jsr 1020178c <uprintn>
10201c40:	508f           	addql #8,%sp
10201c42:	4879 1020 29e0 	pea 102029e0 <__DTOR_END__+0x500>
10201c48:	4eb9 1020 1722 	jsr 10201722 <uprintf>
10201c4e:	588f           	addql #4,%sp
10201c50:	4878 0001      	pea 1 <__DYNAMIC+0x1>
10201c54:	2f2e fff4      	movel %fp@(-12),%sp@-
10201c58:	4eb9 1020 178c 	jsr 1020178c <uprintn>
10201c5e:	508f           	addql #8,%sp
10201c60:	4879 1020 29f6 	pea 102029f6 <__DTOR_END__+0x516>
10201c66:	4eb9 1020 1722 	jsr 10201722 <uprintf>
10201c6c:	588f           	addql #4,%sp
10201c6e:	600a           	bras 10201c7a <kcd+0x222>
10201c70:	206e fffc      	moveal %fp@(-4),%a0
10201c74:	4210           	clrb %a0@
10201c76:	52ae fffc      	addql #1,%fp@(-4)
10201c7a:	206e fffc      	moveal %fp@(-4),%a0
10201c7e:	1010           	moveb %a0@,%d0
10201c80:	4a00           	tstb %d0
10201c82:	66ec           	bnes 10201c70 <kcd+0x218>
10201c84:	206e fffc      	moveal %fp@(-4),%a0
10201c88:	1010           	moveb %a0@,%d0
10201c8a:	4a00           	tstb %d0
10201c8c:	66e2           	bnes 10201c70 <kcd+0x218>
10201c8e:	606e           	bras 10201cfe <kcd+0x2a6>
10201c90:	4878 0010      	pea 10 <__DYNAMIC+0x10>
10201c94:	4eb9 1020 02d4 	jsr 102002d4 <exception>
10201c9a:	588f           	addql #4,%sp
10201c9c:	6060           	bras 10201cfe <kcd+0x2a6>
10201c9e:	2039 1020 3e62 	movel 10203e62 <timer_display>,%d0
10201ca4:	4a80           	tstl %d0
10201ca6:	6610           	bnes 10201cb8 <kcd+0x260>
10201ca8:	4879 1020 29fb 	pea 102029fb <__DTOR_END__+0x51b>
10201cae:	4eb9 1020 1722 	jsr 10201722 <uprintf>
10201cb4:	588f           	addql #4,%sp
10201cb6:	6046           	bras 10201cfe <kcd+0x2a6>
10201cb8:	4878 0010      	pea 10 <__DYNAMIC+0x10>
10201cbc:	4eb9 1020 02d4 	jsr 102002d4 <exception>
10201cc2:	588f           	addql #4,%sp
10201cc4:	6038           	bras 10201cfe <kcd+0x2a6>
10201cc6:	2039 1020 3e62 	movel 10203e62 <timer_display>,%d0
10201ccc:	4a80           	tstl %d0
10201cce:	6622           	bnes 10201cf2 <kcd+0x29a>
10201cd0:	7004           	moveq #4,%d0
10201cd2:	23c0 1020 3e56 	movel %d0,10203e56 <current_command>
10201cd8:	4878 0001      	pea 1 <__DYNAMIC+0x1>
10201cdc:	4eb9 1020 24a8 	jsr 102024a8 <sleep>
10201ce2:	588f           	addql #4,%sp
10201ce4:	4878 0005      	pea 5 <__DYNAMIC+0x5>
10201ce8:	4eb9 1020 02d4 	jsr 102002d4 <exception>
10201cee:	588f           	addql #4,%sp
10201cf0:	600c           	bras 10201cfe <kcd+0x2a6>
10201cf2:	4878 0010      	pea 10 <__DYNAMIC+0x10>
10201cf6:	4eb9 1020 02d4 	jsr 102002d4 <exception>
10201cfc:	588f           	addql #4,%sp
10201cfe:	2f2e ffe8      	movel %fp@(-24),%sp@-
10201d02:	4eb9 1020 08e2 	jsr 102008e2 <release_memory_block>
10201d08:	588f           	addql #4,%sp
10201d0a:	6000 fd5c      	braw 10201a68 <kcd+0x10>
	...

10201d10 <crt>:
10201d10:	4e56 fff8      	linkw %fp,#-8
10201d14:	42a7           	clrl %sp@-
10201d16:	4eb9 1020 0aa2 	jsr 10200aa2 <receive_message>
10201d1c:	588f           	addql #4,%sp
10201d1e:	2d40 fff8      	movel %d0,%fp@(-8)
10201d22:	2f2e fff8      	movel %fp@(-8),%sp@-
10201d26:	4eb9 1020 0d18 	jsr 10200d18 <read_message>
10201d2c:	588f           	addql #4,%sp
10201d2e:	2040           	moveal %d0,%a0
10201d30:	1010           	moveb %a0@,%d0
10201d32:	206e fffc      	moveal %fp@(-4),%a0
10201d36:	1080           	moveb %d0,%a0@
10201d38:	2f2e fffc      	movel %fp@(-4),%sp@-
10201d3c:	4eb9 1020 1722 	jsr 10201722 <uprintf>
10201d42:	588f           	addql #4,%sp
10201d44:	2f2e fff8      	movel %fp@(-8),%sp@-
10201d48:	4eb9 1020 08e2 	jsr 102008e2 <release_memory_block>
10201d4e:	588f           	addql #4,%sp
10201d50:	60c2           	bras 10201d14 <crt+0x4>
	...

10201d54 <c_timer_handler>:
10201d54:	4e56 0000      	linkw %fp,#0
10201d58:	2039 1020 2a52 	movel 10202a52 <Ticks>,%d0
10201d5e:	0c80 0083 d5ff 	cmpil #8639999,%d0
10201d64:	6e10           	bgts 10201d76 <c_timer_handler+0x22>
10201d66:	2039 1020 2a52 	movel 10202a52 <Ticks>,%d0
10201d6c:	5280           	addql #1,%d0
10201d6e:	23c0 1020 2a52 	movel %d0,10202a52 <Ticks>
10201d74:	6006           	bras 10201d7c <c_timer_handler+0x28>
10201d76:	42b9 1020 2a52 	clrl 10202a52 <Ticks>
10201d7c:	207c f000 0151 	moveal #-268435119,%a0
10201d82:	10bc 0002      	moveb #2,%a0@
10201d86:	4e5e           	unlk %fp
10201d88:	4e75           	rts

10201d8a <wallclock>:
10201d8a:	4e56 ffc8      	linkw %fp,#-56
10201d8e:	2f03           	movel %d3,%sp@-
10201d90:	2f02           	movel %d2,%sp@-
10201d92:	2039 1020 3e56 	movel 10203e56 <current_command>,%d0
10201d98:	4a80           	tstl %d0
10201d9a:	671a           	beqs 10201db6 <wallclock+0x2c>
10201d9c:	42a7           	clrl %sp@-
10201d9e:	4eb9 1020 0aa2 	jsr 10200aa2 <receive_message>
10201da4:	588f           	addql #4,%sp
10201da6:	2d40 fff4      	movel %d0,%fp@(-12)
10201daa:	2f2e fff4      	movel %fp@(-12),%sp@-
10201dae:	4eb9 1020 08e2 	jsr 102008e2 <release_memory_block>
10201db4:	588f           	addql #4,%sp
10201db6:	2039 1020 2a52 	movel 10202a52 <Ticks>,%d0
10201dbc:	7264           	moveq #100,%d1
10201dbe:	4c41 0802      	remsl %d1,%d2,%d0
10201dc2:	4c41 0800      	remsl %d1,%d0,%d0
10201dc6:	2d40 fffc      	movel %d0,%fp@(-4)
10201dca:	202e fffc      	movel %fp@(-4),%d0
10201dce:	263c 0000 0e10 	movel #3600,%d3
10201dd4:	4c43 0801      	remsl %d3,%d1,%d0
10201dd8:	4c43 0800      	remsl %d3,%d0,%d0
10201ddc:	23c0 1020 2a58 	movel %d0,10202a58 <_edata>
10201de2:	202e fffc      	movel %fp@(-4),%d0
10201de6:	2400           	movel %d0,%d2
10201de8:	263c 0000 0e10 	movel #3600,%d3
10201dee:	4c43 2801      	remsl %d3,%d1,%d2
10201df2:	4c43 2802      	remsl %d3,%d2,%d2
10201df6:	2001           	movel %d1,%d0
10201df8:	2d40 fffc      	movel %d0,%fp@(-4)
10201dfc:	202e fffc      	movel %fp@(-4),%d0
10201e00:	743c           	moveq #60,%d2
10201e02:	4c42 0803      	remsl %d2,%d3,%d0
10201e06:	4c42 0800      	remsl %d2,%d0,%d0
10201e0a:	23c0 1020 2a5c 	movel %d0,10202a5c <Minutes>
10201e10:	202e fffc      	movel %fp@(-4),%d0
10201e14:	2200           	movel %d0,%d1
10201e16:	743c           	moveq #60,%d2
10201e18:	4c42 1803      	remsl %d2,%d3,%d1
10201e1c:	4c42 1801      	remsl %d2,%d1,%d1
10201e20:	2003           	movel %d3,%d0
10201e22:	2d40 fffc      	movel %d0,%fp@(-4)
10201e26:	41ee fffc      	lea %fp@(-4),%a0
10201e2a:	23d0 1020 2a60 	movel %a0@,10202a60 <Seconds>
10201e30:	2039 1020 2a58 	movel 10202a58 <_edata>,%d0
10201e36:	7209           	moveq #9,%d1
10201e38:	b280           	cmpl %d0,%d1
10201e3a:	6d20           	blts 10201e5c <wallclock+0xd2>
10201e3c:	7430           	moveq #48,%d2
10201e3e:	13c2 1020 2a48 	moveb %d2,10202a48 <TimeString>
10201e44:	2039 1020 2a58 	movel 10202a58 <_edata>,%d0
10201e4a:	1000           	moveb %d0,%d0
10201e4c:	0680 0000 0030 	addil #48,%d0
10201e52:	1000           	moveb %d0,%d0
10201e54:	13c0 1020 2a49 	moveb %d0,10202a49 <TimeString+0x1>
10201e5a:	6044           	bras 10201ea0 <wallclock+0x116>
10201e5c:	2039 1020 2a58 	movel 10202a58 <_edata>,%d0
10201e62:	760a           	moveq #10,%d3
10201e64:	4c43 0801      	remsl %d3,%d1,%d0
10201e68:	4c43 0800      	remsl %d3,%d0,%d0
10201e6c:	1000           	moveb %d0,%d0
10201e6e:	0680 0000 0030 	addil #48,%d0
10201e74:	1000           	moveb %d0,%d0
10201e76:	13c0 1020 2a48 	moveb %d0,10202a48 <TimeString>
10201e7c:	2039 1020 2a58 	movel 10202a58 <_edata>,%d0
10201e82:	2400           	movel %d0,%d2
10201e84:	760a           	moveq #10,%d3
10201e86:	4c43 2801      	remsl %d3,%d1,%d2
10201e8a:	4c43 2802      	remsl %d3,%d2,%d2
10201e8e:	2001           	movel %d1,%d0
10201e90:	1000           	moveb %d0,%d0
10201e92:	0680 0000 0030 	addil #48,%d0
10201e98:	1000           	moveb %d0,%d0
10201e9a:	13c0 1020 2a49 	moveb %d0,10202a49 <TimeString+0x1>
10201ea0:	2039 1020 2a5c 	movel 10202a5c <Minutes>,%d0
10201ea6:	7409           	moveq #9,%d2
10201ea8:	b480           	cmpl %d0,%d2
10201eaa:	6d20           	blts 10201ecc <wallclock+0x142>
10201eac:	7630           	moveq #48,%d3
10201eae:	13c3 1020 2a4b 	moveb %d3,10202a4b <TimeString+0x3>
10201eb4:	2039 1020 2a5c 	movel 10202a5c <Minutes>,%d0
10201eba:	1000           	moveb %d0,%d0
10201ebc:	0680 0000 0030 	addil #48,%d0
10201ec2:	1000           	moveb %d0,%d0
10201ec4:	13c0 1020 2a4c 	moveb %d0,10202a4c <TimeString+0x4>
10201eca:	6044           	bras 10201f10 <wallclock+0x186>
10201ecc:	2039 1020 2a5c 	movel 10202a5c <Minutes>,%d0
10201ed2:	720a           	moveq #10,%d1
10201ed4:	4c41 0802      	remsl %d1,%d2,%d0
10201ed8:	4c41 0800      	remsl %d1,%d0,%d0
10201edc:	1000           	moveb %d0,%d0
10201ede:	0680 0000 0030 	addil #48,%d0
10201ee4:	1000           	moveb %d0,%d0
10201ee6:	13c0 1020 2a4b 	moveb %d0,10202a4b <TimeString+0x3>
10201eec:	2039 1020 2a5c 	movel 10202a5c <Minutes>,%d0
10201ef2:	2600           	movel %d0,%d3
10201ef4:	720a           	moveq #10,%d1
10201ef6:	4c41 3802      	remsl %d1,%d2,%d3
10201efa:	4c41 3803      	remsl %d1,%d3,%d3
10201efe:	2002           	movel %d2,%d0
10201f00:	1000           	moveb %d0,%d0
10201f02:	0680 0000 0030 	addil #48,%d0
10201f08:	1000           	moveb %d0,%d0
10201f0a:	13c0 1020 2a4c 	moveb %d0,10202a4c <TimeString+0x4>
10201f10:	2039 1020 2a60 	movel 10202a60 <Seconds>,%d0
10201f16:	7609           	moveq #9,%d3
10201f18:	b680           	cmpl %d0,%d3
10201f1a:	6d20           	blts 10201f3c <wallclock+0x1b2>
10201f1c:	7030           	moveq #48,%d0
10201f1e:	13c0 1020 2a4e 	moveb %d0,10202a4e <TimeString+0x6>
10201f24:	2039 1020 2a60 	movel 10202a60 <Seconds>,%d0
10201f2a:	1000           	moveb %d0,%d0
10201f2c:	0680 0000 0030 	addil #48,%d0
10201f32:	1000           	moveb %d0,%d0
10201f34:	13c0 1020 2a4f 	moveb %d0,10202a4f <TimeString+0x7>
10201f3a:	6044           	bras 10201f80 <wallclock+0x1f6>
10201f3c:	2039 1020 2a60 	movel 10202a60 <Seconds>,%d0
10201f42:	720a           	moveq #10,%d1
10201f44:	4c41 0802      	remsl %d1,%d2,%d0
10201f48:	4c41 0800      	remsl %d1,%d0,%d0
10201f4c:	1000           	moveb %d0,%d0
10201f4e:	0680 0000 0030 	addil #48,%d0
10201f54:	1000           	moveb %d0,%d0
10201f56:	13c0 1020 2a4e 	moveb %d0,10202a4e <TimeString+0x6>
10201f5c:	2039 1020 2a60 	movel 10202a60 <Seconds>,%d0
10201f62:	2600           	movel %d0,%d3
10201f64:	720a           	moveq #10,%d1
10201f66:	4c41 3802      	remsl %d1,%d2,%d3
10201f6a:	4c41 3803      	remsl %d1,%d3,%d3
10201f6e:	2002           	movel %d2,%d0
10201f70:	1000           	moveb %d0,%d0
10201f72:	0680 0000 0030 	addil #48,%d0
10201f78:	1000           	moveb %d0,%d0
10201f7a:	13c0 1020 2a4f 	moveb %d0,10202a4f <TimeString+0x7>
10201f80:	2039 1020 3e52 	movel 10203e52 <command_flag>,%d0
10201f86:	4a80           	tstl %d0
10201f88:	6628           	bnes 10201fb2 <wallclock+0x228>
10201f8a:	4879 1020 2a19 	pea 10202a19 <__DTOR_END__+0x539>
10201f90:	4eb9 1020 1722 	jsr 10201722 <uprintf>
10201f96:	588f           	addql #4,%sp
10201f98:	4879 1020 2a48 	pea 10202a48 <TimeString>
10201f9e:	4eb9 1020 1722 	jsr 10201722 <uprintf>
10201fa4:	588f           	addql #4,%sp
10201fa6:	4878 0001      	pea 1 <__DYNAMIC+0x1>
10201faa:	4eb9 1020 24a8 	jsr 102024a8 <sleep>
10201fb0:	588f           	addql #4,%sp
10201fb2:	2039 1020 3e52 	movel 10203e52 <command_flag>,%d0
10201fb8:	7601           	moveq #1,%d3
10201fba:	b680           	cmpl %d0,%d3
10201fbc:	6600 fdd4      	bnew 10201d92 <wallclock+0x8>
10201fc0:	2039 1020 3e56 	movel 10203e56 <current_command>,%d0
10201fc6:	4a80           	tstl %d0
10201fc8:	6600 fdc8      	bnew 10201d92 <wallclock+0x8>
10201fcc:	42a7           	clrl %sp@-
10201fce:	4eb9 1020 0aa2 	jsr 10200aa2 <receive_message>
10201fd4:	588f           	addql #4,%sp
10201fd6:	2d40 fff4      	movel %d0,%fp@(-12)
10201fda:	2f2e fff4      	movel %fp@(-12),%sp@-
10201fde:	4eb9 1020 0d18 	jsr 10200d18 <read_message>
10201fe4:	588f           	addql #4,%sp
10201fe6:	2d40 fff8      	movel %d0,%fp@(-8)
10201fea:	206e fff8      	moveal %fp@(-8),%a0
10201fee:	5288           	addql #1,%a0
10201ff0:	1010           	moveb %a0@,%d0
10201ff2:	49c0           	extbl %d0
10201ff4:	7253           	moveq #83,%d1
10201ff6:	b280           	cmpl %d0,%d1
10201ff8:	6600 00d2      	bnew 102020cc <wallclock+0x342>
10201ffc:	206e fff8      	moveal %fp@(-8),%a0
10202000:	5488           	addql #2,%a0
10202002:	1010           	moveb %a0@,%d0
10202004:	49c0           	extbl %d0
10202006:	2200           	movel %d0,%d1
10202008:	d281           	addl %d1,%d1
1020200a:	2001           	movel %d1,%d0
1020200c:	e588           	lsll #2,%d0
1020200e:	d081           	addl %d1,%d0
10202010:	0680 ffff fe20 	addil #-480,%d0
10202016:	23c0 1020 2a58 	movel %d0,10202a58 <_edata>
1020201c:	206e fff8      	moveal %fp@(-8),%a0
10202020:	5688           	addql #3,%a0
10202022:	1010           	moveb %a0@,%d0
10202024:	49c0           	extbl %d0
10202026:	2200           	movel %d0,%d1
10202028:	0681 ffff ffd0 	addil #-48,%d1
1020202e:	2039 1020 2a58 	movel 10202a58 <_edata>,%d0
10202034:	d081           	addl %d1,%d0
10202036:	23c0 1020 2a58 	movel %d0,10202a58 <_edata>
1020203c:	206e fff8      	moveal %fp@(-8),%a0
10202040:	5a88           	addql #5,%a0
10202042:	1010           	moveb %a0@,%d0
10202044:	49c0           	extbl %d0
10202046:	2200           	movel %d0,%d1
10202048:	d281           	addl %d1,%d1
1020204a:	2001           	movel %d1,%d0
1020204c:	e588           	lsll #2,%d0
1020204e:	d081           	addl %d1,%d0
10202050:	0680 ffff fe20 	addil #-480,%d0
10202056:	23c0 1020 2a5c 	movel %d0,10202a5c <Minutes>
1020205c:	206e fff8      	moveal %fp@(-8),%a0
10202060:	5c88           	addql #6,%a0
10202062:	1010           	moveb %a0@,%d0
10202064:	49c0           	extbl %d0
10202066:	2200           	movel %d0,%d1
10202068:	0681 ffff ffd0 	addil #-48,%d1
1020206e:	2039 1020 2a5c 	movel 10202a5c <Minutes>,%d0
10202074:	d081           	addl %d1,%d0
10202076:	23c0 1020 2a5c 	movel %d0,10202a5c <Minutes>
1020207c:	206e fff8      	moveal %fp@(-8),%a0
10202080:	5088           	addql #8,%a0
10202082:	1010           	moveb %a0@,%d0
10202084:	49c0           	extbl %d0
10202086:	2200           	movel %d0,%d1
10202088:	d281           	addl %d1,%d1
1020208a:	2001           	movel %d1,%d0
1020208c:	e588           	lsll #2,%d0
1020208e:	d081           	addl %d1,%d0
10202090:	0680 ffff fe20 	addil #-480,%d0
10202096:	23c0 1020 2a60 	movel %d0,10202a60 <Seconds>
1020209c:	206e fff8      	moveal %fp@(-8),%a0
102020a0:	d1fc 0000 0009 	addal #9,%a0
102020a6:	1010           	moveb %a0@,%d0
102020a8:	49c0           	extbl %d0
102020aa:	2200           	movel %d0,%d1
102020ac:	0681 ffff ffd0 	addil #-48,%d1
102020b2:	2039 1020 2a60 	movel 10202a60 <Seconds>,%d0
102020b8:	d081           	addl %d1,%d0
102020ba:	23c0 1020 2a60 	movel %d0,10202a60 <Seconds>
102020c0:	2f2e fff8      	movel %fp@(-8),%sp@-
102020c4:	4eb9 1020 1722 	jsr 10201722 <uprintf>
102020ca:	588f           	addql #4,%sp
102020cc:	42b9 1020 3e56 	clrl 10203e56 <current_command>
102020d2:	2f2e fff4      	movel %fp@(-12),%sp@-
102020d6:	4eb9 1020 08e2 	jsr 102008e2 <release_memory_block>
102020dc:	588f           	addql #4,%sp
102020de:	6000 fcb2      	braw 10201d92 <wallclock+0x8>

102020e2 <set_system_time>:
102020e2:	4e56 0000      	linkw %fp,#0
102020e6:	4280           	clrl %d0
102020e8:	4e5e           	unlk %fp
102020ea:	4e75           	rts

102020ec <create_pib>:
102020ec:	4e56 fffc      	linkw %fp,#-4
102020f0:	4878 0018      	pea 18 <__DYNAMIC+0x18>
102020f4:	4eb9 1020 0720 	jsr 10200720 <malloc>
102020fa:	588f           	addql #4,%sp
102020fc:	2d40 fffc      	movel %d0,%fp@(-4)
10202100:	206e fffc      	moveal %fp@(-4),%a0
10202104:	20ae 0008      	movel %fp@(8),%a0@
10202108:	206e fffc      	moveal %fp@(-4),%a0
1020210c:	216e 000c 0004 	movel %fp@(12),%a0@(4)
10202112:	206e fffc      	moveal %fp@(-4),%a0
10202116:	216e 0014 000c 	movel %fp@(20),%a0@(12)
1020211c:	206e fffc      	moveal %fp@(-4),%a0
10202120:	216e 0010 0008 	movel %fp@(16),%a0@(8)
10202126:	206e fffc      	moveal %fp@(-4),%a0
1020212a:	216e 0018 0010 	movel %fp@(24),%a0@(16)
10202130:	4878 001c      	pea 1c <__DYNAMIC+0x1c>
10202134:	4eb9 1020 0720 	jsr 10200720 <malloc>
1020213a:	588f           	addql #4,%sp
1020213c:	206e fffc      	moveal %fp@(-4),%a0
10202140:	2140 0014      	movel %d0,%a0@(20)
10202144:	202e fffc      	movel %fp@(-4),%d0
10202148:	4e5e           	unlk %fp
1020214a:	4e75           	rts

1020214c <init_traps>:
1020214c:	4e56 0000      	linkw %fp,#0
10202150:	203c 1020 0020 	movel #270532640,%d0
10202156:	23c0 1000 0080 	movel %d0,10000080 <__DYNAMIC+0x10000080>
1020215c:	203c 1020 0108 	movel #270532872,%d0
10202162:	23c0 1000 008c 	movel %d0,1000008c <__DYNAMIC+0x1000008c>
10202168:	203c 1020 0158 	movel #270532952,%d0
1020216e:	23c0 1000 0090 	movel %d0,10000090 <__DYNAMIC+0x10000090>
10202174:	4e5e           	unlk %fp
10202176:	4e75           	rts

10202178 <init_memory>:
10202178:	4e56 fffc      	linkw %fp,#-4
1020217c:	2f02           	movel %d2,%sp@-
1020217e:	42ae fffc      	clrl %fp@(-4)
10202182:	6038           	bras 102021bc <init_memory+0x44>
10202184:	202e fffc      	movel %fp@(-4),%d0
10202188:	e788           	lsll #3,%d0
1020218a:	41f9 1020 3d36 	lea 10203d36 <memoryBlocks>,%a0
10202190:	42b0 0800      	clrl %a0@(00000000,%d0:l)
10202194:	242e fffc      	movel %fp@(-4),%d2
10202198:	4878 0080      	pea 80 <__DYNAMIC+0x80>
1020219c:	4eb9 1020 0720 	jsr 10200720 <malloc>
102021a2:	588f           	addql #4,%sp
102021a4:	2200           	movel %d0,%d1
102021a6:	2002           	movel %d2,%d0
102021a8:	d080           	addl %d0,%d0
102021aa:	5280           	addql #1,%d0
102021ac:	e588           	lsll #2,%d0
102021ae:	41f9 1020 3d36 	lea 10203d36 <memoryBlocks>,%a0
102021b4:	2181 0800      	movel %d1,%a0@(00000000,%d0:l)
102021b8:	52ae fffc      	addql #1,%fp@(-4)
102021bc:	701f           	moveq #31,%d0
102021be:	b0ae fffc      	cmpl %fp@(-4),%d0
102021c2:	6cc0           	bges 10202184 <init_memory+0xc>
102021c4:	242e fff8      	movel %fp@(-8),%d2
102021c8:	4e5e           	unlk %fp
102021ca:	4e75           	rts

102021cc <init_mailbox>:
102021cc:	4e56 fffc      	linkw %fp,#-4
102021d0:	42b9 1020 3e5a 	clrl 10203e5a <red_lever>
102021d6:	42ae fffc      	clrl %fp@(-4)
102021da:	6066           	bras 10202242 <init_mailbox+0x76>
102021dc:	202e fffc      	movel %fp@(-4),%d0
102021e0:	e588           	lsll #2,%d0
102021e2:	2200           	movel %d0,%d1
102021e4:	e589           	lsll #2,%d1
102021e6:	d081           	addl %d1,%d0
102021e8:	41f9 1020 3ab0 	lea 10203ab0 <mailbox>,%a0
102021ee:	72ff           	moveq #-1,%d1
102021f0:	2181 0800      	movel %d1,%a0@(00000000,%d0:l)
102021f4:	222e fffc      	movel %fp@(-4),%d1
102021f8:	2001           	movel %d1,%d0
102021fa:	e588           	lsll #2,%d0
102021fc:	d081           	addl %d1,%d0
102021fe:	5280           	addql #1,%d0
10202200:	e588           	lsll #2,%d0
10202202:	41f9 1020 3ab0 	lea 10203ab0 <mailbox>,%a0
10202208:	72ff           	moveq #-1,%d1
1020220a:	2181 0800      	movel %d1,%a0@(00000000,%d0:l)
1020220e:	202e fffc      	movel %fp@(-4),%d0
10202212:	e588           	lsll #2,%d0
10202214:	2200           	movel %d0,%d1
10202216:	e589           	lsll #2,%d1
10202218:	d081           	addl %d1,%d0
1020221a:	41f9 1020 3ab8 	lea 10203ab8 <mailbox+0x8>,%a0
10202220:	72ff           	moveq #-1,%d1
10202222:	2181 0800      	movel %d1,%a0@(00000000,%d0:l)
10202226:	202e fffc      	movel %fp@(-4),%d0
1020222a:	e588           	lsll #2,%d0
1020222c:	2200           	movel %d0,%d1
1020222e:	e589           	lsll #2,%d1
10202230:	d081           	addl %d1,%d0
10202232:	41f9 1020 3abc 	lea 10203abc <mailbox+0xc>,%a0
10202238:	72ff           	moveq #-1,%d1
1020223a:	2181 0800      	movel %d1,%a0@(00000000,%d0:l)
1020223e:	52ae fffc      	addql #1,%fp@(-4)
10202242:	701f           	moveq #31,%d0
10202244:	b0ae fffc      	cmpl %fp@(-4),%d0
10202248:	6c92           	bges 102021dc <init_mailbox+0x10>
1020224a:	4e5e           	unlk %fp
1020224c:	4e75           	rts

1020224e <init_queues>:
1020224e:	4e56 fffc      	linkw %fp,#-4
10202252:	4eb9 1020 0f0e 	jsr 10200f0e <clear_priority>
10202258:	42ae fffc      	clrl %fp@(-4)
1020225c:	6034           	bras 10202292 <init_queues+0x44>
1020225e:	202e fffc      	movel %fp@(-4),%d0
10202262:	e588           	lsll #2,%d0
10202264:	41f9 1020 3e3e 	lea 10203e3e <ready_queue>,%a0
1020226a:	42b0 0800      	clrl %a0@(00000000,%d0:l)
1020226e:	202e fffc      	movel %fp@(-4),%d0
10202272:	e588           	lsll #2,%d0
10202274:	41f9 1020 3a98 	lea 10203a98 <bmsg_queue>,%a0
1020227a:	42b0 0800      	clrl %a0@(00000000,%d0:l)
1020227e:	202e fffc      	movel %fp@(-4),%d0
10202282:	e588           	lsll #2,%d0
10202284:	41f9 1020 3a84 	lea 10203a84 <bmem_queue>,%a0
1020228a:	42b0 0800      	clrl %a0@(00000000,%d0:l)
1020228e:	52ae fffc      	addql #1,%fp@(-4)
10202292:	7003           	moveq #3,%d0
10202294:	b0ae fffc      	cmpl %fp@(-4),%d0
10202298:	6cc4           	bges 1020225e <init_queues+0x10>
1020229a:	4e5e           	unlk %fp
1020229c:	4e75           	rts

1020229e <init_scheduler>:
1020229e:	4e56 fffc      	linkw %fp,#-4
102022a2:	7006           	moveq #6,%d0
102022a4:	23c0 1020 3e6a 	movel %d0,10203e6a <total_procs>
102022aa:	42b9 1020 3a94 	clrl 10203a94 <prio>
102022b0:	2079 1020 3e66 	moveal 10203e66 <init_blocks_head>,%a0
102022b6:	2028 0010      	movel %a0@(16),%d0
102022ba:	2d40 fffc      	movel %d0,%fp@(-4)
102022be:	6020           	bras 102022e0 <init_scheduler+0x42>
102022c0:	2f2e fffc      	movel %fp@(-4),%sp@-
102022c4:	4eb9 1020 0fc4 	jsr 10200fc4 <insert_new_process>
102022ca:	588f           	addql #4,%sp
102022cc:	206e fffc      	moveal %fp@(-4),%a0
102022d0:	2140 0014      	movel %d0,%a0@(20)
102022d4:	206e fffc      	moveal %fp@(-4),%a0
102022d8:	2028 0010      	movel %a0@(16),%d0
102022dc:	2d40 fffc      	movel %d0,%fp@(-4)
102022e0:	4aae fffc      	tstl %fp@(-4)
102022e4:	66da           	bnes 102022c0 <init_scheduler+0x22>
102022e6:	4e5e           	unlk %fp
102022e8:	4e75           	rts

102022ea <init_io>:
102022ea:	4e56 fffc      	linkw %fp,#-4
102022ee:	4eb9 1020 16a2 	jsr 102016a2 <atomic_up>
102022f4:	203c 1020 0078 	movel #270532728,%d0
102022fa:	23c0 1000 0100 	movel %d0,10000100 <__DYNAMIC+0x10000100>
10202300:	207c f000 0208 	moveal #-268434936,%a0
10202306:	10bc 0010      	moveb #16,%a0@
1020230a:	207c f000 0208 	moveal #-268434936,%a0
10202310:	10bc 0020      	moveb #32,%a0@
10202314:	207c f000 0208 	moveal #-268434936,%a0
1020231a:	10bc 0030      	moveb #48,%a0@
1020231e:	207c f000 0208 	moveal #-268434936,%a0
10202324:	10bc 0040      	moveb #64,%a0@
10202328:	207c f000 0051 	moveal #-268435375,%a0
1020232e:	10bc 0017      	moveb #23,%a0@
10202332:	207c f000 0230 	moveal #-268434896,%a0
10202338:	10bc 0040      	moveb #64,%a0@
1020233c:	207c f000 0214 	moveal #-268434924,%a0
10202342:	10bc 0002      	moveb #2,%a0@
10202346:	207c f000 0218 	moveal #-268434920,%a0
1020234c:	4210           	clrb %a0@
1020234e:	207c f000 021c 	moveal #-268434916,%a0
10202354:	10bc ff92      	moveb #-110,%a0@
10202358:	207c f000 0204 	moveal #-268434940,%a0
1020235e:	10bc ffdd      	moveb #-35,%a0@
10202362:	207c f000 0200 	moveal #-268434944,%a0
10202368:	10bc 0013      	moveb #19,%a0@
1020236c:	207c f000 0200 	moveal #-268434944,%a0
10202372:	10bc 0007      	moveb #7,%a0@
10202376:	207c f000 0208 	moveal #-268434936,%a0
1020237c:	10bc 0005      	moveb #5,%a0@
10202380:	207c f000 0044 	moveal #-268435388,%a0
10202386:	2d50 fffc      	movel %a0@,%fp@(-4)
1020238a:	203c 0003 dfff 	movel #253951,%d0
10202390:	c1ae fffc      	andl %d0,%fp@(-4)
10202394:	207c f000 0044 	moveal #-268435388,%a0
1020239a:	20ae fffc      	movel %fp@(-4),%a0@
1020239e:	4eb9 1020 16ae 	jsr 102016ae <atomic_down>
102023a4:	207c f000 0214 	moveal #-268434924,%a0
102023aa:	10bc 0003      	moveb #3,%a0@
102023ae:	4e5e           	unlk %fp
102023b0:	4e75           	rts

102023b2 <init_timer>:
102023b2:	4e56 0000      	linkw %fp,#0
102023b6:	4eb9 1020 16a2 	jsr 102016a2 <atomic_up>
102023bc:	203c 1020 00c4 	movel #270532804,%d0
102023c2:	23c0 1000 0078 	movel %d0,10000078 <__DYNAMIC+0x10000078>
102023c8:	207c f000 004d 	moveal #-268435379,%a0
102023ce:	10bc ff9b      	moveb #-101,%a0@
102023d2:	207c f000 0144 	moveal #-268435132,%a0
102023d8:	30bc 06de      	movew #1758,%a0@
102023dc:	207c f000 0140 	moveal #-268435136,%a0
102023e2:	30bc ff1b      	movew #-229,%a0@
102023e6:	42b9 1020 3e62 	clrl 10203e62 <timer_display>
102023ec:	4eb9 1020 16ae 	jsr 102016ae <atomic_down>
102023f2:	4e5e           	unlk %fp
102023f4:	4e75           	rts

102023f6 <register_commands>:
102023f6:	4e56 0000      	linkw %fp,#0
102023fa:	4878 0040      	pea 40 <__DYNAMIC+0x40>
102023fe:	4eb9 1020 0720 	jsr 10200720 <malloc>
10202404:	588f           	addql #4,%sp
10202406:	23c0 1020 3e70 	movel %d0,10203e70 <kcd_msg>
1020240c:	42b9 1020 3e4e 	clrl 10203e4e <msg_length>
10202412:	7004           	moveq #4,%d0
10202414:	23c0 1020 3e56 	movel %d0,10203e56 <current_command>
1020241a:	4879 1020 2a1b 	pea 10202a1b <__DTOR_END__+0x53b>
10202420:	4eb9 1020 1a0c 	jsr 10201a0c <register_command>
10202426:	588f           	addql #4,%sp
10202428:	23c0 1020 3aa8 	movel %d0,10203aa8 <init_key_head>
1020242e:	4879 1020 2a1d 	pea 10202a1d <__DTOR_END__+0x53d>
10202434:	4eb9 1020 1a0c 	jsr 10201a0c <register_command>
1020243a:	588f           	addql #4,%sp
1020243c:	4879 1020 2a20 	pea 10202a20 <__DTOR_END__+0x540>
10202442:	4eb9 1020 1a0c 	jsr 10201a0c <register_command>
10202448:	588f           	addql #4,%sp
1020244a:	4879 1020 2a23 	pea 10202a23 <__DTOR_END__+0x543>
10202450:	4eb9 1020 1a0c 	jsr 10201a0c <register_command>
10202456:	588f           	addql #4,%sp
10202458:	4879 1020 2a1d 	pea 10202a1d <__DTOR_END__+0x53d>
1020245e:	4eb9 1020 1a0c 	jsr 10201a0c <register_command>
10202464:	588f           	addql #4,%sp
10202466:	4e5e           	unlk %fp
10202468:	4e75           	rts

1020246a <system_kickoff>:
1020246a:	4e56 0000      	linkw %fp,#0
1020246e:	2079 1020 3e66 	moveal 10203e66 <init_blocks_head>,%a0
10202474:	2028 0014      	movel %a0@(20),%d0
10202478:	23c0 1020 3aac 	movel %d0,10203aac <running>
1020247e:	2079 1020 3aac 	moveal 10203aac <running>,%a0
10202484:	7002           	moveq #2,%d0
10202486:	2140 0008      	movel %d0,%a0@(8)
1020248a:	203c 1020 249a 	movel #270541978,%d0
10202490:	23c0 1020 3e3a 	movel %d0,10203e3a <proc_pointer>
10202496:	4e5e           	unlk %fp
10202498:	4e75           	rts

1020249a <null_process>:
1020249a:	4e56 0000      	linkw %fp,#0
1020249e:	4eb9 1020 0eb4 	jsr 10200eb4 <release_processor>
102024a4:	4e5e           	unlk %fp
102024a6:	4e75           	rts

102024a8 <sleep>:
102024a8:	4e56 fffc      	linkw %fp,#-4
102024ac:	42ae fffc      	clrl %fp@(-4)
102024b0:	6004           	bras 102024b6 <sleep+0xe>
102024b2:	52ae fffc      	addql #1,%fp@(-4)
102024b6:	202e 0008      	movel %fp@(8),%d0
102024ba:	223c 0001 86a0 	movel #100000,%d1
102024c0:	4c01 0800      	mulsl %d1,%d0
102024c4:	b0ae fffc      	cmpl %fp@(-4),%d0
102024c8:	6ee8           	bgts 102024b2 <sleep+0xa>
102024ca:	4e5e           	unlk %fp
102024cc:	4e75           	rts
	...

102024d0 <__CTOR_LIST__>:
	...

102024d8 <__CTOR_END__>:
	...

102024e0 <__DTOR_END__>:
102024e0:	0d0a           	06412
102024e2:	4552           	042522
102024e4:	524f           	051117
102024e6:	523a           	051072
102024e8:	2045           	moveal %d5,%a0
102024ea:	7272           	moveq #114,%d1
102024ec:	6f72           	bles 10202560 <__DTOR_END__+0x80>
102024ee:	2e0d           	movel %a5,%d7
102024f0:	0a3e           	05076
102024f2:	000d           	015
102024f4:	0a45           	05105
102024f6:	5252           	051122
102024f8:	4f52           	047522
102024fa:	3a20           	movew %a0@-,%d5
102024fc:	496e           	044556
102024fe:	7661           	moveq #97,%d3
10202500:	6c69           	bges 1020256b <__DTOR_END__+0x8b>
10202502:	6420           	bccs 10202524 <__DTOR_END__+0x44>
10202504:	7072           	moveq #114,%d0
10202506:	696f           	bvss 10202577 <__DTOR_END__+0x97>
10202508:	7269           	moveq #105,%d1
1020250a:	7479           	moveq #121,%d2
1020250c:	0d0a           	06412
1020250e:	3e00           	movew %d0,%d7
10202510:	0d0a           	06412
10202512:	4552           	042522
10202514:	524f           	051117
10202516:	523a           	051072
10202518:	204d           	moveal %a5,%a0
1020251a:	6573           	bcss 1020258f <__DTOR_END__+0xaf>
1020251c:	7361           	071541
1020251e:	6765           	beqs 10202585 <__DTOR_END__+0xa5>
10202520:	2073 656e 7420 	moveal %a3@(00007420)@(0000746f),%a0
10202526:	746f 
10202528:	206e 6f6e      	moveal %fp@(28526),%a0
1020252c:	2d65 7869      	movel %a5@-,%fp@(30825)
10202530:	7374           	071564
10202532:	656e           	bcss 102025a2 <__DTOR_END__+0xc2>
10202534:	7420           	moveq #32,%d2
10202536:	7072           	moveq #114,%d0
10202538:	6f63           	bles 1020259d <__DTOR_END__+0xbd>
1020253a:	6573           	bcss 102025af <__DTOR_END__+0xcf>
1020253c:	732e           	071456
1020253e:	0d0a           	06412
10202540:	3e00           	movew %d0,%d7
10202542:	0d0a           	06412
10202544:	4552           	042522
10202546:	524f           	051117
10202548:	523a           	051072
1020254a:	2054           	moveal %a4@,%a0
1020254c:	7269           	moveq #105,%d1
1020254e:	6564           	bcss 102025b4 <__DTOR_END__+0xd4>
10202550:	2074 6f20 6368 	moveal %a4@(00006368,%d6:l:8),%a0
10202556:	616e           	bsrs 102025c6 <__DTOR_END__+0xe6>
10202558:	6765           	beqs 102025bf <__DTOR_END__+0xdf>
1020255a:	2070 7269      	moveal %a0@(00000069,%d7:w:2),%a0
1020255e:	6f72           	bles 102025d2 <__DTOR_END__+0xf2>
10202560:	6974           	bvss 102025d6 <__DTOR_END__+0xf6>
10202562:	7920           	074440
10202564:	6f6e           	bles 102025d4 <__DTOR_END__+0xf4>
10202566:	206e 6f6e      	moveal %fp@(28526),%a0
1020256a:	2d65 7869      	movel %a5@-,%fp@(30825)
1020256e:	7374           	071564
10202570:	656e           	bcss 102025e0 <__DTOR_END__+0x100>
10202572:	7420           	moveq #32,%d2
10202574:	6f72           	bles 102025e8 <__DTOR_END__+0x108>
10202576:	206b 6572      	moveal %a3@(25970),%a0
1020257a:	6e65           	bgts 102025e1 <__DTOR_END__+0x101>
1020257c:	6c2d           	bges 102025ab <__DTOR_END__+0xcb>
1020257e:	6f77           	bles 102025f7 <__DTOR_END__+0x117>
10202580:	6e65           	bgts 102025e7 <__DTOR_END__+0x107>
10202582:	6420           	bccs 102025a4 <__DTOR_END__+0xc4>
10202584:	7072           	moveq #114,%d0
10202586:	6f63           	bles 102025eb <__DTOR_END__+0x10b>
10202588:	6573           	bcss 102025fd <__DTOR_END__+0x11d>
1020258a:	732e           	071456
1020258c:	0d0a           	06412
1020258e:	3e00           	movew %d0,%d7
10202590:	0d0a           	06412
10202592:	4552           	042522
10202594:	524f           	051117
10202596:	523a           	051072
10202598:	2049           	moveal %a1,%a0
1020259a:	6e76           	bgts 10202612 <__DTOR_END__+0x132>
1020259c:	616c           	bsrs 1020260a <__DTOR_END__+0x12a>
1020259e:	6964           	bvss 10202604 <__DTOR_END__+0x124>
102025a0:	2068 6f74      	moveal %a0@(28532),%a0
102025a4:	6b65           	bmis 1020260b <__DTOR_END__+0x12b>
102025a6:	792e           	074456
102025a8:	0d0a           	06412
102025aa:	3e00           	movew %d0,%d7
102025ac:	0d0a           	06412
102025ae:	4552           	042522
102025b0:	524f           	051117
102025b2:	523a           	051072
102025b4:	2042           	moveal %d2,%a0
102025b6:	6164           	bsrs 1020261c <__DTOR_END__+0x13c>
102025b8:	2063           	moveal %a3@-,%a0
102025ba:	6f6d           	bles 10202629 <__DTOR_END__+0x149>
102025bc:	6d61           	blts 1020261f <__DTOR_END__+0x13f>
102025be:	6e64           	bgts 10202624 <__DTOR_END__+0x144>
102025c0:	2e0d           	movel %a5,%d7
102025c2:	0a3e           	05076
102025c4:	000d           	015
102025c6:	0a45           	05105
102025c8:	5252           	051122
102025ca:	4f52           	047522
102025cc:	3a20           	movew %a0@-,%d5
102025ce:	496e           	044556
102025d0:	7661           	moveq #97,%d3
102025d2:	6c69           	bges 1020263d <__DTOR_END__+0x15d>
102025d4:	6420           	bccs 102025f6 <__DTOR_END__+0x116>
102025d6:	636f           	blss 10202647 <__DTOR_END__+0x167>
102025d8:	6d6d           	blts 10202647 <__DTOR_END__+0x167>
102025da:	616e           	bsrs 1020264a <__DTOR_END__+0x16a>
102025dc:	6420           	bccs 102025fe <__DTOR_END__+0x11e>
102025de:	7061           	moveq #97,%d0
102025e0:	7261           	moveq #97,%d1
102025e2:	6d65           	blts 10202649 <__DTOR_END__+0x169>
102025e4:	7465           	moveq #101,%d2
102025e6:	722e           	moveq #46,%d1
102025e8:	0d0a           	06412
102025ea:	3e00           	movew %d0,%d7
102025ec:	0d0a           	06412
102025ee:	4552           	042522
102025f0:	524f           	051117
102025f2:	523a           	051072
102025f4:	2042           	moveal %d2,%a0
102025f6:	6c6f           	bges 10202667 <__DTOR_END__+0x187>
102025f8:	636b           	blss 10202665 <__DTOR_END__+0x185>
102025fa:	6564           	bcss 10202660 <__DTOR_END__+0x180>
102025fc:	206f 6e20      	moveal %sp@(28192),%a0
10202600:	7265           	moveq #101,%d1
10202602:	6365           	blss 10202669 <__DTOR_END__+0x189>
10202604:	6976           	bvss 1020267c <__DTOR_END__+0x19c>
10202606:	652e           	bcss 10202636 <__DTOR_END__+0x156>
10202608:	0d0a           	06412
1020260a:	3e00           	movew %d0,%d7
1020260c:	0d0a           	06412
1020260e:	4552           	042522
10202610:	524f           	051117
10202612:	523a           	051072
10202614:	2042           	moveal %d2,%a0
10202616:	6c6f           	bges 10202687 <__DTOR_END__+0x1a7>
10202618:	636b           	blss 10202685 <__DTOR_END__+0x1a5>
1020261a:	6564           	bcss 10202680 <__DTOR_END__+0x1a0>
1020261c:	206f 6e20      	moveal %sp@(28192),%a0
10202620:	6d65           	blts 10202687 <__DTOR_END__+0x1a7>
10202622:	6d6f           	blts 10202693 <__DTOR_END__+0x1b3>
10202624:	7279           	moveq #121,%d1
10202626:	2e0d           	movel %a5,%d7
10202628:	0a3e           	05076
1020262a:	000d           	015
1020262c:	0a45           	05105
1020262e:	5252           	051122
10202630:	4f52           	047522
10202632:	3a20           	movew %a0@-,%d5
10202634:	4f75           	047565
10202636:	7420           	moveq #32,%d2
10202638:	6f66           	bles 102026a0 <__DTOR_END__+0x1c0>
1020263a:	206d 656d      	moveal %a5@(25965),%a0
1020263e:	6f72           	bles 102026b2 <__DTOR_END__+0x1d2>
10202640:	792e           	074456
10202642:	0d0a           	06412
10202644:	3e00           	movew %d0,%d7
10202646:	0d0a           	06412
10202648:	4552           	042522
1020264a:	524f           	051117
1020264c:	523a           	051072
1020264e:	204d           	moveal %a5,%a0
10202650:	6169           	bsrs 102026bb <__DTOR_END__+0x1db>
10202652:	6c62           	bges 102026b6 <__DTOR_END__+0x1d6>
10202654:	6f78           	bles 102026ce <__DTOR_END__+0x1ee>
10202656:	2066           	moveal %fp@-,%a0
10202658:	756c           	072554
1020265a:	6c2e           	bges 1020268a <__DTOR_END__+0x1aa>
1020265c:	2050           	moveal %a0@,%a0
1020265e:	6c65           	bges 102026c5 <__DTOR_END__+0x1e5>
10202660:	6173           	bsrs 102026d5 <__DTOR_END__+0x1f5>
10202662:	6520           	bcss 10202684 <__DTOR_END__+0x1a4>
10202664:	7761           	073541
10202666:	6974           	bvss 102026dc <__DTOR_END__+0x1fc>
10202668:	2061           	moveal %a1@-,%a0
1020266a:	6e64           	bgts 102026d0 <__DTOR_END__+0x1f0>
1020266c:	2074 7279      	moveal %a4@(00000079,%d7:w:2),%a0
10202670:	2061           	moveal %a1@-,%a0
10202672:	6761           	beqs 102026d5 <__DTOR_END__+0x1f5>
10202674:	696e           	bvss 102026e4 <__DTOR_END__+0x204>
10202676:	2e0d           	movel %a5,%d7
10202678:	0a3e           	05076
1020267a:	000d           	015
1020267c:	0a45           	05105
1020267e:	5252           	051122
10202680:	4f52           	047522
10202682:	3a20           	movew %a0@-,%d5
10202684:	496e           	044556
10202686:	7661           	moveq #97,%d3
10202688:	6c69           	bges 102026f3 <__DTOR_END__+0x213>
1020268a:	6420           	bccs 102026ac <__DTOR_END__+0x1cc>
1020268c:	7469           	moveq #105,%d2
1020268e:	6d65           	blts 102026f5 <__DTOR_END__+0x215>
10202690:	7374           	071564
10202692:	616d           	bsrs 10202701 <__DTOR_END__+0x221>
10202694:	702e           	moveq #46,%d0
10202696:	2050           	moveal %a0@,%a0
10202698:	6c65           	bges 102026ff <__DTOR_END__+0x21f>
1020269a:	6173           	bsrs 1020270f <__DTOR_END__+0x22f>
1020269c:	6520           	bcss 102026be <__DTOR_END__+0x1de>
1020269e:	7573           	072563
102026a0:	6520           	bcss 102026c2 <__DTOR_END__+0x1e2>
102026a2:	6120           	bsrs 102026c4 <__DTOR_END__+0x1e4>
102026a4:	6868           	bvcs 1020270e <__DTOR_END__+0x22e>
102026a6:	3a6d 6d3a      	moveaw %a5@(27962),%a5
102026aa:	7373           	071563
102026ac:	2066           	moveal %fp@-,%a0
102026ae:	6f72           	bles 10202722 <__DTOR_END__+0x242>
102026b0:	6d61           	blts 10202713 <__DTOR_END__+0x233>
102026b2:	742e           	moveq #46,%d2
102026b4:	0d0a           	06412
102026b6:	2030 203c      	movel %a0@(0000003c,%d2:w),%d0
102026ba:	3d20           	movew %a0@-,%fp@-
102026bc:	6868           	bvcs 10202726 <__DTOR_END__+0x246>
102026be:	203c 3d20 3233 	movel #1025520179,%d0
102026c4:	2c20           	movel %a0@-,%d6
102026c6:	3020           	movew %a0@-,%d0
102026c8:	3c3d           	036075
102026ca:	206d 6d20      	moveal %a5@(27936),%a0
102026ce:	3c3d           	036075
102026d0:	2035 392c 2030 	movel %a5@(00002030)@(00000000,%d3:l),%d0
102026d6:	203c 3d20 7373 	movel #1025536883,%d0
102026dc:	203c 3d20 3539 	movel #1025520953,%d0
102026e2:	0d0a           	06412
102026e4:	3e00           	movew %d0,%d7
102026e6:	0d0a           	06412
102026e8:	4552           	042522
102026ea:	524f           	051117
102026ec:	523a           	051072
102026ee:	204e           	moveal %fp,%a0
102026f0:	6f6e           	bles 10202760 <__DTOR_END__+0x280>
102026f2:	2065           	moveal %a5@-,%a0
102026f4:	7869           	moveq #105,%d4
102026f6:	7374           	071564
102026f8:	656e           	bcss 10202768 <__DTOR_END__+0x288>
102026fa:	7420           	moveq #32,%d2
102026fc:	7072           	moveq #114,%d0
102026fe:	6f63           	bles 10202763 <__DTOR_END__+0x283>
10202700:	6573           	bcss 10202775 <__DTOR_END__+0x295>
10202702:	7320           	071440
10202704:	7265           	moveq #101,%d1
10202706:	6665           	bnes 1020276d <__DTOR_END__+0x28d>
10202708:	7265           	moveq #101,%d1
1020270a:	6e63           	bgts 1020276f <__DTOR_END__+0x28f>
1020270c:	6564           	bcss 10202772 <__DTOR_END__+0x292>
1020270e:	2e0d           	movel %a5,%d7
10202710:	0a3e           	05076
10202712:	000d           	015
10202714:	0a45           	05105
10202716:	5252           	051122
10202718:	4f52           	047522
1020271a:	3a20           	movew %a0@-,%d5
1020271c:	4361           	041541
1020271e:	6e6e           	bgts 1020278e <__DTOR_END__+0x2ae>
10202720:	6f74           	bles 10202796 <__DTOR_END__+0x2b6>
10202722:	2072 656c 6561 	moveal %a2@(00006561)@(00000000),%a0
10202728:	7365           	071545
1020272a:	206d 656d      	moveal %a5@(25965),%a0
1020272e:	6f72           	bles 102027a2 <__DTOR_END__+0x2c2>
10202730:	7920           	074440
10202732:	626c           	bhis 102027a0 <__DTOR_END__+0x2c0>
10202734:	6f63           	bles 10202799 <__DTOR_END__+0x2b9>
10202736:	6b2e           	bmis 10202766 <__DTOR_END__+0x286>
10202738:	0d0a           	06412
1020273a:	3e00           	movew %d0,%d7
1020273c:	0d0a           	06412
1020273e:	4552           	042522
10202740:	524f           	051117
10202742:	523a           	051072
10202744:	2050           	moveal %a0@,%a0
10202746:	726f           	moveq #111,%d1
10202748:	6365           	blss 102027af <__DTOR_END__+0x2cf>
1020274a:	7373           	071563
1020274c:	2061           	moveal %a1@-,%a0
1020274e:	6c72           	bges 102027c2 <__DTOR_END__+0x2e2>
10202750:	6561           	bcss 102027b3 <__DTOR_END__+0x2d3>
10202752:	6479           	bccs 102027cd <__DTOR_END__+0x2ed>
10202754:	2069 6e20      	moveal %a1@(28192),%a0
10202758:	7468           	moveq #104,%d2
1020275a:	6973           	bvss 102027cf <__DTOR_END__+0x2ef>
1020275c:	2070 7269      	moveal %a0@(00000069,%d7:w:2),%a0
10202760:	6f72           	bles 102027d4 <__DTOR_END__+0x2f4>
10202762:	6974           	bvss 102027d8 <__DTOR_END__+0x2f8>
10202764:	792e           	074456
10202766:	0d0a           	06412
10202768:	3e00           	movew %d0,%d7
1020276a:	0d0a           	06412
1020276c:	4552           	042522
1020276e:	524f           	051117
10202770:	523a           	051072
10202772:	2054           	moveal %a4@,%a0
10202774:	6572           	bcss 102027e8 <__DTOR_END__+0x308>
10202776:	6d69           	blts 102027e1 <__DTOR_END__+0x301>
10202778:	6e61           	bgts 102027db <__DTOR_END__+0x2fb>
1020277a:	7465           	moveq #101,%d2
1020277c:	6420           	bccs 1020279e <__DTOR_END__+0x2be>
1020277e:	7072           	moveq #114,%d0
10202780:	6f63           	bles 102027e5 <__DTOR_END__+0x305>
10202782:	6573           	bcss 102027f7 <__DTOR_END__+0x317>
10202784:	7320           	071440
10202786:	7265           	moveq #101,%d1
10202788:	6665           	bnes 102027ef <__DTOR_END__+0x30f>
1020278a:	7265           	moveq #101,%d1
1020278c:	6e63           	bgts 102027f1 <__DTOR_END__+0x311>
1020278e:	6564           	bcss 102027f4 <__DTOR_END__+0x314>
10202790:	2e0d           	movel %a5,%d7
10202792:	0a3e           	05076
10202794:	000d           	015
10202796:	0a45           	05105
10202798:	5252           	051122
1020279a:	4f52           	047522
1020279c:	3a20           	movew %a0@-,%d5
1020279e:	4361           	041541
102027a0:	6e6e           	bgts 10202810 <__DTOR_END__+0x330>
102027a2:	6f74           	bles 10202818 <__DTOR_END__+0x338>
102027a4:	2072 756e 2074 	moveal %a2@(00002074)@(00006869),%a0
102027aa:	6869 
102027ac:	7320           	071440
102027ae:	636f           	blss 1020281f <__DTOR_END__+0x33f>
102027b0:	6d6d           	blts 1020281f <__DTOR_END__+0x33f>
102027b2:	616e           	bsrs 10202822 <__DTOR_END__+0x342>
102027b4:	6420           	bccs 102027d6 <__DTOR_END__+0x2f6>
102027b6:	7768           	073550
102027b8:	696c           	bvss 10202826 <__DTOR_END__+0x346>
102027ba:	6520           	bcss 102027dc <__DTOR_END__+0x2fc>
102027bc:	7761           	073541
102027be:	6c6c           	bges 1020282c <__DTOR_END__+0x34c>
102027c0:	636c           	blss 1020282e <__DTOR_END__+0x34e>
102027c2:	6f63           	bles 10202827 <__DTOR_END__+0x347>
102027c4:	6b20           	bmis 102027e6 <__DTOR_END__+0x306>
102027c6:	6973           	bvss 1020283b <__DTOR_END__+0x35b>
102027c8:	2072 756e 6e69 	moveal %a2@(00006e69)@(00006e67),%a0
102027ce:	6e67 
102027d0:	2e20           	movel %a0@-,%d7
102027d2:	506c           	050154
102027d4:	6561           	bcss 10202837 <__DTOR_END__+0x357>
102027d6:	7365           	071545
102027d8:	2075 7365 2025 	moveal %a5@(00002025)@(00000000),%a0
102027de:	5753           	053523
102027e0:	206f 7220      	moveal %sp@(29216),%a0
102027e4:	2557 5420      	movel %sp@,%a2@(21536)
102027e8:	6f6e           	bles 10202858 <__DTOR_END__+0x378>
102027ea:	6c79           	bges 10202865 <__DTOR_END__+0x385>
102027ec:	2e0d           	movel %a5,%d7
102027ee:	0a3e           	05076
102027f0:	0054           	0124
102027f2:	6173           	bsrs 10202867 <__DTOR_END__+0x387>
102027f4:	6b20           	bmis 10202816 <__DTOR_END__+0x336>
102027f6:	4d61           	046541
102027f8:	6e61           	bgts 1020285b <__DTOR_END__+0x37b>
102027fa:	6765           	beqs 10202861 <__DTOR_END__+0x381>
102027fc:	7200           	moveq #0,%d1
102027fe:	0d0a           	06412
10202800:	5f5f           	057537
10202802:	5f5f           	057537
10202804:	5f5f           	057537
10202806:	5f5f           	057537
10202808:	5f5f           	057537
1020280a:	5f5f           	057537
1020280c:	5f5f           	057537
1020280e:	5f5f           	057537
10202810:	5f5f           	057537
10202812:	2e00           	movel %d0,%d7
10202814:	0d0a           	06412
10202816:	7c20           	moveq #32,%d6
10202818:	2050           	moveal %a0@,%a0
1020281a:	2020           	movel %a0@-,%d0
1020281c:	7c20           	moveq #32,%d6
1020281e:	2050           	moveal %a0@,%a0
10202820:	2020           	movel %a0@-,%d0
10202822:	7c20           	moveq #32,%d6
10202824:	2053           	moveal %a3@,%a0
10202826:	2020           	movel %a0@-,%d0
10202828:	7c00           	moveq #0,%d6
1020282a:	0d0a           	06412
1020282c:	7c20           	moveq #32,%d6
1020282e:	2000           	movel %d0,%d0
10202830:	2020           	movel %a0@-,%d0
10202832:	7c20           	moveq #32,%d6
10202834:	2000           	movel %d0,%d0
10202836:	2020           	movel %a0@-,%d0
10202838:	7c00           	moveq #0,%d6
1020283a:	0d0a           	06412
1020283c:	5f5f           	057537
1020283e:	5f5f           	057537
10202840:	5f5f           	057537
10202842:	5f5f           	057537
10202844:	5f5f           	057537
10202846:	5f5f           	057537
10202848:	5f5f           	057537
1020284a:	5f5f           	057537
1020284c:	5f5f           	057537
1020284e:	2e0d           	movel %a5,%d7
10202850:	0a00           	05000
10202852:	4552           	042522
10202854:	524f           	051117
10202856:	5220           	051040
10202858:	434f           	041517
1020285a:	4445           	042105
1020285c:	2036 3a20      	movel %fp@(00000020,%d3:l:2),%d0
10202860:	424c           	041114
10202862:	4f43           	047503
10202864:	4b45           	045505
10202866:	4420           	042040
10202868:	4f4e           	047516
1020286a:	204d           	moveal %a5,%a0
1020286c:	454d           	042515
1020286e:	4f52           	047522
10202870:	590d           	054415
10202872:	0a00           	05000
10202874:	0d0a           	06412
10202876:	2052           	moveal %a2@,%a0
10202878:	6561           	bcss 102028db <__DTOR_END__+0x3fb>
1020287a:	6479           	bccs 102028f5 <__DTOR_END__+0x415>
1020287c:	2051           	moveal %a1@,%a0
1020287e:	7565           	072545
10202880:	7565           	072545
10202882:	3a20           	movew %a0@-,%d5
10202884:	5072           	050162
10202886:	696f           	bvss 102028f7 <__DTOR_END__+0x417>
10202888:	7269           	moveq #105,%d1
1020288a:	7479           	moveq #121,%d2
1020288c:	2000           	movel %d0,%d0
1020288e:	0d0a           	06412
10202890:	0950           	bchg %d4,%a0@
10202892:	726f           	moveq #111,%d1
10202894:	6365           	blss 102028fb <__DTOR_END__+0x41b>
10202896:	7373           	071563
10202898:	2000           	movel %d0,%d0
1020289a:	0d0a           	06412
1020289c:	000d           	015
1020289e:	0a20           	05040
102028a0:	426c 6f63      	clrw %a4@(28515)
102028a4:	6b65           	bmis 1020290b <__DTOR_END__+0x42b>
102028a6:	6420           	bccs 102028c8 <__DTOR_END__+0x3e8>
102028a8:	4d73           	046563
102028aa:	6720           	beqs 102028cc <__DTOR_END__+0x3ec>
102028ac:	5072           	050162
102028ae:	696f           	bvss 1020291f <__DTOR_END__+0x43f>
102028b0:	7269           	moveq #105,%d1
102028b2:	7479           	moveq #121,%d2
102028b4:	2000           	movel %d0,%d0
102028b6:	0d0a           	06412
102028b8:	2042           	moveal %d2,%a0
102028ba:	6c6f           	bges 1020292b <__DTOR_END__+0x44b>
102028bc:	636b           	blss 10202929 <__DTOR_END__+0x449>
102028be:	6564           	bcss 10202924 <__DTOR_END__+0x444>
102028c0:	204d           	moveal %a5,%a0
102028c2:	656d           	bcss 10202931 <__DTOR_END__+0x451>
102028c4:	2050           	moveal %a0@,%a0
102028c6:	7269           	moveq #105,%d1
102028c8:	6f72           	bles 1020293c <__DTOR_END__+0x45c>
102028ca:	6974           	bvss 10202940 <__DTOR_END__+0x460>
102028cc:	7920           	074440
102028ce:	0072           	0162
102028d0:	7478           	moveq #120,%d2
102028d2:	5f6c           	057554
102028d4:	6f61           	bles 10202937 <__DTOR_END__+0x457>
102028d6:	6465           	bccs 1020293d <__DTOR_END__+0x45d>
102028d8:	723a           	moveq #58,%d1
102028da:	2073 7461      	moveal %a3@(00000061,%d7:w:4),%a0
102028de:	7274           	moveq #116,%d1
102028e0:	6564           	bcss 10202946 <__DTOR_END__+0x466>
102028e2:	0d0a           	06412
102028e4:	0072           	0162
102028e6:	7478           	moveq #120,%d2
102028e8:	5f6c           	057554
102028ea:	6f61           	bles 1020294d <__DTOR_END__+0x46d>
102028ec:	6465           	bccs 10202953 <__DTOR_END__+0x473>
102028ee:	723a           	moveq #58,%d1
102028f0:	2063           	moveal %a3@-,%a0
102028f2:	616c           	bsrs 10202960 <__DTOR_END__+0x480>
102028f4:	6c69           	bges 1020295f <__DTOR_END__+0x47f>
102028f6:	6e67           	bgts 1020295f <__DTOR_END__+0x47f>
102028f8:	205f           	moveal %sp@+,%a0
102028fa:	5f52           	057522
102028fc:	4547           	042507
102028fe:	4953           	044523
10202900:	5445           	052105
10202902:	525f           	051137
10202904:	5254           	051124
10202906:	585f           	054137
10202908:	454e           	042516
1020290a:	5452           	052122
1020290c:	595f           	054537
1020290e:	5f28           	057450
10202910:	292e 2e2e      	movel %fp@(11822),%a4@-
10202914:	0d0a           	06412
10202916:	0072           	0162
10202918:	7478           	moveq #120,%d2
1020291a:	5f6c           	057554
1020291c:	6f61           	bles 1020297f <__DTOR_END__+0x49f>
1020291e:	6465           	bccs 10202985 <__DTOR_END__+0x4a5>
10202920:	723a           	moveq #58,%d1
10202922:	2063           	moveal %a3@-,%a0
10202924:	616c           	bsrs 10202992 <__DTOR_END__+0x4b2>
10202926:	6c69           	bges 10202991 <__DTOR_END__+0x4b1>
10202928:	6e67           	bgts 10202991 <__DTOR_END__+0x4b1>
1020292a:	205f           	moveal %sp@+,%a0
1020292c:	5f52           	057522
1020292e:	5458           	052130
10202930:	5f45           	057505
10202932:	4e54 5259      	linkw %a4,#21081
10202936:	5f5f           	057537
10202938:	2829 2e2e      	movel %a1@(11822),%d4
1020293c:	2e0d           	movel %a5,%d7
1020293e:	0a00           	05000
10202940:	7274           	moveq #116,%d1
10202942:	785f           	moveq #95,%d4
10202944:	6c6f           	bges 102029b5 <__DTOR_END__+0x4d5>
10202946:	6164           	bsrs 102029ac <__DTOR_END__+0x4cc>
10202948:	6572           	bcss 102029bc <__DTOR_END__+0x4dc>
1020294a:	3a20           	movew %a0@-,%d5
1020294c:	6f75           	bles 102029c3 <__DTOR_END__+0x4e3>
1020294e:	7420           	moveq #32,%d2
10202950:	6f66           	bles 102029b8 <__DTOR_END__+0x4d8>
10202952:	2072 7478      	moveal %a2@(00000078,%d7:w:4),%a0
10202956:	2c20           	movel %a0@-,%d6
10202958:	6e6f           	bgts 102029c9 <__DTOR_END__+0x4e9>
1020295a:	7420           	moveq #32,%d2
1020295c:	676f           	beqs 102029cd <__DTOR_END__+0x4ed>
1020295e:	6f64           	bles 102029c4 <__DTOR_END__+0x4e4>
10202960:	2121           	movel %a1@-,%a0@-
10202962:	210d           	movel %a5,%a0@-
10202964:	0a00           	05000
10202966:	7274           	moveq #116,%d1
10202968:	785f           	moveq #95,%d4
1020296a:	6c6f           	bges 102029db <__DTOR_END__+0x4fb>
1020296c:	6164           	bsrs 102029d2 <__DTOR_END__+0x4f2>
1020296e:	6572           	bcss 102029e2 <__DTOR_END__+0x502>
10202970:	3a20           	movew %a0@-,%d5
10202972:	696e           	bvss 102029e2 <__DTOR_END__+0x502>
10202974:	6669           	bnes 102029df <__DTOR_END__+0x4ff>
10202976:	6e69           	bgts 102029e1 <__DTOR_END__+0x501>
10202978:	7465           	moveq #101,%d2
1020297a:	206c 6f6f      	moveal %a4@(28527),%a0
1020297e:	7021           	moveq #33,%d0
10202980:	0d0a           	06412
10202982:	000d           	015
10202984:	0a20           	05040
10202986:	5072           	050162
10202988:	6f63           	bles 102029ed <__DTOR_END__+0x50d>
1020298a:	6573           	bcss 102029ff <__DTOR_END__+0x51f>
1020298c:	7320           	071440
1020298e:	7072           	moveq #114,%d0
10202990:	696f           	bvss 10202a01 <__DTOR_END__+0x521>
10202992:	7269           	moveq #105,%d1
10202994:	7479           	moveq #121,%d2
10202996:	2069 6e76      	moveal %a1@(28278),%a0
1020299a:	616c           	bsrs 10202a08 <__DTOR_END__+0x528>
1020299c:	6964           	bvss 10202a02 <__DTOR_END__+0x522>
1020299e:	2076 616c 7565 	moveal %fp@(00007565)@(00000000),%a0
102029a4:	2e00           	movel %d0,%d7
102029a6:	5741           	053501
102029a8:	4c4c           	046114
102029aa:	434c           	041514
102029ac:	4f43           	047503
102029ae:	4b20           	045440
102029b0:	5445           	052105
102029b2:	524d           	051115
102029b4:	494e           	044516
102029b6:	4154           	040524
102029b8:	4544           	042504
102029ba:	0d0a           	06412
102029bc:	3e00           	movew %d0,%d7
102029be:	5700           	053400
102029c0:	4368           	041550
102029c2:	616e           	bsrs 10202a32 <__FINI_SECTION__+0x5>
102029c4:	6769           	beqs 10202a2f <__FINI_SECTION__+0x2>
102029c6:	6e67           	bgts 10202a2f <__FINI_SECTION__+0x2>
102029c8:	2070 7269      	moveal %a0@(00000069,%d7:w:2),%a0
102029cc:	6f72           	bles 10202a40 <crlfgt+0x4>
102029ce:	6974           	bvss 10202a44 <crlf>
102029d0:	6965           	bvss 10202a37 <_etext+0x2>
102029d2:	730d           	071415
102029d4:	0a00           	05000
102029d6:	3e50           	moveaw %a0@,%sp
102029d8:	726f           	moveq #111,%d1
102029da:	6365           	blss 10202a41 <crlfgt+0x5>
102029dc:	7373           	071563
102029de:	2000           	movel %d0,%d0
102029e0:	2063           	moveal %a3@-,%a0
102029e2:	6861           	bvcs 10202a45 <crlf+0x1>
102029e4:	6e67           	bgts 10202a4d <TimeString+0x5>
102029e6:	6564           	bcss 10202a4c <TimeString+0x4>
102029e8:	2074 6f20 7072 	moveal %a4@(00007072,%d6:l:8),%a0
102029ee:	696f           	bvss 10202a5f <Minutes+0x3>
102029f0:	7269           	moveq #105,%d1
102029f2:	7479           	moveq #121,%d2
102029f4:	2000           	movel %d0,%d0
102029f6:	2e0d           	movel %a5,%d7
102029f8:	0a3e           	05076
102029fa:	000d           	015
102029fc:	0a49           	05111
102029fe:	2061           	moveal %a1@-,%a0
10202a00:	6d20           	blts 10202a22 <__DTOR_END__+0x542>
10202a02:	7468           	moveq #104,%d2
10202a04:	6520           	bcss 10202a26 <__INIT_SECTION__+0x1>
10202a06:	4772           	043562
10202a08:	6561           	bcss 10202a6b <Seconds+0xb>
10202a0a:	7420           	moveq #32,%d2
10202a0c:	436f           	041557
10202a0e:	726e           	moveq #110,%d1
10202a10:	686f           	bvcs 10202a81 <main_stack+0x1>
10202a12:	6c69           	bges 10202a7d <old_stack+0xd>
10202a14:	6f21           	bles 10202a37 <_etext+0x2>
10202a16:	0d0a           	06412
10202a18:	000d           	015
10202a1a:	0057           	0127
10202a1c:	0057           	0127
10202a1e:	5300           	051400
10202a20:	5754           	053524
10202a22:	0043           	0103
	...

10202a25 <__INIT_SECTION__>:
10202a25:	4e56 0000      	linkw %fp,#0
10202a29:	4e5e           	unlk %fp
10202a2b:	4e75           	rts

10202a2d <__FINI_SECTION__>:
10202a2d:	4e56 0000      	linkw %fp,#0
10202a31:	4e5e           	unlk %fp
10202a33:	4e75           	rts
